C000  4C F5 C5  JMP  A:00 X:00 Y:00 P:24 SP:FD
C5F5  A2 00     LDX  A:00 X:00 Y:00 P:24 SP:FD
C5F7  86 00     STX  A:00 X:00 Y:00 P:26 SP:FD
C5F9  86 10     STX  A:00 X:00 Y:00 P:26 SP:FD
C5FB  86 11     STX  A:00 X:00 Y:00 P:26 SP:FD
C5FD  20 2D C7  JSR  A:00 X:00 Y:00 P:26 SP:FD
C72D  EA        NOP  A:00 X:00 Y:00 P:26 SP:FB
C72E  38        SEC  A:00 X:00 Y:00 P:26 SP:FB
C72F  B0 04     BCS  A:00 X:00 Y:00 P:27 SP:FB
C735  EA        NOP  A:00 X:00 Y:00 P:27 SP:FB
C736  18        CLC  A:00 X:00 Y:00 P:27 SP:FB
C737  B0 03     BCS  A:00 X:00 Y:00 P:26 SP:FB
C739  4C 40 C7  JMP  A:00 X:00 Y:00 P:26 SP:FB
C740  EA        NOP  A:00 X:00 Y:00 P:26 SP:FB
C741  38        SEC  A:00 X:00 Y:00 P:26 SP:FB
C742  90 03     BCC  A:00 X:00 Y:00 P:27 SP:FB
C744  4C 4B C7  JMP  A:00 X:00 Y:00 P:27 SP:FB
C74B  EA        NOP  A:00 X:00 Y:00 P:27 SP:FB
C74C  18        CLC  A:00 X:00 Y:00 P:27 SP:FB
C74D  90 04     BCC  A:00 X:00 Y:00 P:26 SP:FB
C753  EA        NOP  A:00 X:00 Y:00 P:26 SP:FB
C754  A9 00     LDA  A:00 X:00 Y:00 P:26 SP:FB
C756  F0 04     BEQ  A:00 X:00 Y:00 P:26 SP:FB
C75C  EA        NOP  A:00 X:00 Y:00 P:26 SP:FB
C75D  A9 40     LDA  A:00 X:00 Y:00 P:26 SP:FB
C75F  F0 03     BEQ  A:40 X:00 Y:00 P:24 SP:FB
C761  4C 68 C7  JMP  A:40 X:00 Y:00 P:24 SP:FB
C768  EA        NOP  A:40 X:00 Y:00 P:24 SP:FB
C769  A9 40     LDA  A:40 X:00 Y:00 P:24 SP:FB
C76B  D0 04     BNE  A:40 X:00 Y:00 P:24 SP:FB
C771  EA        NOP  A:40 X:00 Y:00 P:24 SP:FB
C772  A9 00     LDA  A:40 X:00 Y:00 P:24 SP:FB
C774  D0 03     BNE  A:00 X:00 Y:00 P:26 SP:FB
C776  4C 7D C7  JMP  A:00 X:00 Y:00 P:26 SP:FB
C77D  EA        NOP  A:00 X:00 Y:00 P:26 SP:FB
C77E  A9 FF     LDA  A:00 X:00 Y:00 P:26 SP:FB
C780  85 01     STA  A:FF X:00 Y:00 P:A4 SP:FB
C782  24 01     BIT  A:FF X:00 Y:00 P:A4 SP:FB
C784  70 04     BVS  A:FF X:00 Y:00 P:E4 SP:FB
C78A  EA        NOP  A:FF X:00 Y:00 P:E4 SP:FB
C78B  24 01     BIT  A:FF X:00 Y:00 P:E4 SP:FB
C78D  50 03     BVC  A:FF X:00 Y:00 P:E4 SP:FB
C78F  4C 96 C7  JMP  A:FF X:00 Y:00 P:E4 SP:FB
C796  EA        NOP  A:FF X:00 Y:00 P:E4 SP:FB
C797  A9 00     LDA  A:FF X:00 Y:00 P:E4 SP:FB
C799  85 01     STA  A:00 X:00 Y:00 P:66 SP:FB
C79B  24 01     BIT  A:00 X:00 Y:00 P:66 SP:FB
C79D  50 04     BVC  A:00 X:00 Y:00 P:26 SP:FB
C7A3  EA        NOP  A:00 X:00 Y:00 P:26 SP:FB
C7A4  24 01     BIT  A:00 X:00 Y:00 P:26 SP:FB
C7A6  70 03     BVS  A:00 X:00 Y:00 P:26 SP:FB
C7A8  4C AF C7  JMP  A:00 X:00 Y:00 P:26 SP:FB
C7AF  EA        NOP  A:00 X:00 Y:00 P:26 SP:FB
C7B0  A9 00     LDA  A:00 X:00 Y:00 P:26 SP:FB
C7B2  10 04     BPL  A:00 X:00 Y:00 P:26 SP:FB
C7B8  EA        NOP  A:00 X:00 Y:00 P:26 SP:FB
C7B9  A9 80     LDA  A:00 X:00 Y:00 P:26 SP:FB
C7BB  10 03     BPL  A:80 X:00 Y:00 P:A4 SP:FB
C7BD  4C D9 C7  JMP  A:80 X:00 Y:00 P:A4 SP:FB
C7D9  EA        NOP  A:80 X:00 Y:00 P:A4 SP:FB
C7DA  60        RTS  A:80 X:00 Y:00 P:A4 SP:FB
C600  20 DB C7  JSR  A:80 X:00 Y:00 P:A4 SP:FD
C7DB  EA        NOP  A:80 X:00 Y:00 P:A4 SP:FB
C7DC  A9 FF     LDA  A:80 X:00 Y:00 P:A4 SP:FB
C7DE  85 01     STA  A:FF X:00 Y:00 P:A4 SP:FB
C7E0  24 01     BIT  A:FF X:00 Y:00 P:A4 SP:FB
C7E2  A9 00     LDA  A:FF X:00 Y:00 P:E4 SP:FB
C7E4  38        SEC  A:00 X:00 Y:00 P:66 SP:FB
C7E5  78        SEI  A:00 X:00 Y:00 P:67 SP:FB
C7E6  F8        SED  A:00 X:00 Y:00 P:67 SP:FB
C7E7  08        PHP  A:00 X:00 Y:00 P:6F SP:FB
C7E8  68        PLA  A:00 X:00 Y:00 P:6F SP:FA
C7E9  29 EF     AND  A:7F X:00 Y:00 P:6D SP:FB
C7EB  C9 6F     CMP  A:6F X:00 Y:00 P:6D SP:FB
C7ED  F0 04     BEQ  A:6F X:00 Y:00 P:6F SP:FB
C7F3  EA        NOP  A:6F X:00 Y:00 P:6F SP:FB
C7F4  A9 40     LDA  A:6F X:00 Y:00 P:6F SP:FB
C7F6  85 01     STA  A:40 X:00 Y:00 P:6D SP:FB
C7F8  24 01     BIT  A:40 X:00 Y:00 P:6D SP:FB
C7FA  D8        CLD  A:40 X:00 Y:00 P:6D SP:FB
C7FB  A9 10     LDA  A:40 X:00 Y:00 P:65 SP:FB
C7FD  18        CLC  A:10 X:00 Y:00 P:65 SP:FB
C7FE  08        PHP  A:10 X:00 Y:00 P:64 SP:FB
C7FF  68        PLA  A:10 X:00 Y:00 P:64 SP:FA
C800  29 EF     AND  A:74 X:00 Y:00 P:64 SP:FB
C802  C9 64     CMP  A:64 X:00 Y:00 P:64 SP:FB
C804  F0 04     BEQ  A:64 X:00 Y:00 P:67 SP:FB
C80A  EA        NOP  A:64 X:00 Y:00 P:67 SP:FB
C80B  A9 80     LDA  A:64 X:00 Y:00 P:67 SP:FB
C80D  85 01     STA  A:80 X:00 Y:00 P:E5 SP:FB
C80F  24 01     BIT  A:80 X:00 Y:00 P:E5 SP:FB
C811  F8        SED  A:80 X:00 Y:00 P:A5 SP:FB
C812  A9 00     LDA  A:80 X:00 Y:00 P:AD SP:FB
C814  38        SEC  A:00 X:00 Y:00 P:2F SP:FB
C815  08        PHP  A:00 X:00 Y:00 P:2F SP:FB
C816  68        PLA  A:00 X:00 Y:00 P:2F SP:FA
C817  29 EF     AND  A:3F X:00 Y:00 P:2D SP:FB
C819  C9 2F     CMP  A:2F X:00 Y:00 P:2D SP:FB
C81B  F0 04     BEQ  A:2F X:00 Y:00 P:2F SP:FB
C821  EA        NOP  A:2F X:00 Y:00 P:2F SP:FB
C822  A9 FF     LDA  A:2F X:00 Y:00 P:2F SP:FB
C824  48        PHA  A:FF X:00 Y:00 P:AD SP:FB
C825  28        PLP  A:FF X:00 Y:00 P:AD SP:FA
C826  D0 09     BNE  A:FF X:00 Y:00 P:EF SP:FB
C828  10 07     BPL  A:FF X:00 Y:00 P:EF SP:FB
C82A  50 05     BVC  A:FF X:00 Y:00 P:EF SP:FB
C82C  90 03     BCC  A:FF X:00 Y:00 P:EF SP:FB
C82E  4C 35 C8  JMP  A:FF X:00 Y:00 P:EF SP:FB
C835  EA        NOP  A:FF X:00 Y:00 P:EF SP:FB
C836  A9 04     LDA  A:FF X:00 Y:00 P:EF SP:FB
C838  48        PHA  A:04 X:00 Y:00 P:6D SP:FB
C839  28        PLP  A:04 X:00 Y:00 P:6D SP:FA
C83A  F0 09     BEQ  A:04 X:00 Y:00 P:24 SP:FB
C83C  30 07     BMI  A:04 X:00 Y:00 P:24 SP:FB
C83E  70 05     BVS  A:04 X:00 Y:00 P:24 SP:FB
C840  B0 03     BCS  A:04 X:00 Y:00 P:24 SP:FB
C842  4C 49 C8  JMP  A:04 X:00 Y:00 P:24 SP:FB
C849  EA        NOP  A:04 X:00 Y:00 P:24 SP:FB
C84A  F8        SED  A:04 X:00 Y:00 P:24 SP:FB
C84B  A9 FF     LDA  A:04 X:00 Y:00 P:2C SP:FB
C84D  85 01     STA  A:FF X:00 Y:00 P:AC SP:FB
C84F  24 01     BIT  A:FF X:00 Y:00 P:AC SP:FB
C851  18        CLC  A:FF X:00 Y:00 P:EC SP:FB
C852  A9 00     LDA  A:FF X:00 Y:00 P:EC SP:FB
C854  48        PHA  A:00 X:00 Y:00 P:6E SP:FB
C855  A9 FF     LDA  A:00 X:00 Y:00 P:6E SP:FA
C857  68        PLA  A:FF X:00 Y:00 P:EC SP:FA
C858  D0 09     BNE  A:00 X:00 Y:00 P:6E SP:FB
C85A  30 07     BMI  A:00 X:00 Y:00 P:6E SP:FB
C85C  50 05     BVC  A:00 X:00 Y:00 P:6E SP:FB
C85E  B0 03     BCS  A:00 X:00 Y:00 P:6E SP:FB
C860  4C 67 C8  JMP  A:00 X:00 Y:00 P:6E SP:FB
C867  EA        NOP  A:00 X:00 Y:00 P:6E SP:FB
C868  A9 00     LDA  A:00 X:00 Y:00 P:6E SP:FB
C86A  85 01     STA  A:00 X:00 Y:00 P:6E SP:FB
C86C  24 01     BIT  A:00 X:00 Y:00 P:6E SP:FB
C86E  38        SEC  A:00 X:00 Y:00 P:2E SP:FB
C86F  A9 FF     LDA  A:00 X:00 Y:00 P:2F SP:FB
C871  48        PHA  A:FF X:00 Y:00 P:AD SP:FB
C872  A9 00     LDA  A:FF X:00 Y:00 P:AD SP:FA
C874  68        PLA  A:00 X:00 Y:00 P:2F SP:FA
C875  F0 09     BEQ  A:FF X:00 Y:00 P:AD SP:FB
C877  10 07     BPL  A:FF X:00 Y:00 P:AD SP:FB
C879  70 05     BVS  A:FF X:00 Y:00 P:AD SP:FB
C87B  90 03     BCC  A:FF X:00 Y:00 P:AD SP:FB
C87D  4C 84 C8  JMP  A:FF X:00 Y:00 P:AD SP:FB
C884  60        RTS  A:FF X:00 Y:00 P:AD SP:FB
C603  20 85 C8  JSR  A:FF X:00 Y:00 P:AD SP:FD
C885  EA        NOP  A:FF X:00 Y:00 P:AD SP:FB
C886  18        CLC  A:FF X:00 Y:00 P:AD SP:FB
C887  A9 FF     LDA  A:FF X:00 Y:00 P:AC SP:FB
C889  85 01     STA  A:FF X:00 Y:00 P:AC SP:FB
C88B  24 01     BIT  A:FF X:00 Y:00 P:AC SP:FB
C88D  A9 55     LDA  A:FF X:00 Y:00 P:EC SP:FB
C88F  09 AA     ORA  A:55 X:00 Y:00 P:6C SP:FB
C891  B0 0B     BCS  A:FF X:00 Y:00 P:EC SP:FB
C893  10 09     BPL  A:FF X:00 Y:00 P:EC SP:FB
C895  C9 FF     CMP  A:FF X:00 Y:00 P:EC SP:FB
C897  D0 05     BNE  A:FF X:00 Y:00 P:6F SP:FB
C899  50 03     BVC  A:FF X:00 Y:00 P:6F SP:FB
C89B  4C A2 C8  JMP  A:FF X:00 Y:00 P:6F SP:FB
C8A2  EA        NOP  A:FF X:00 Y:00 P:6F SP:FB
C8A3  38        SEC  A:FF X:00 Y:00 P:6F SP:FB
C8A4  B8        CLV  A:FF X:00 Y:00 P:6F SP:FB
C8A5  A9 00     LDA  A:FF X:00 Y:00 P:2F SP:FB
C8A7  09 00     ORA  A:00 X:00 Y:00 P:2F SP:FB
C8A9  D0 09     BNE  A:00 X:00 Y:00 P:2F SP:FB
C8AB  70 07     BVS  A:00 X:00 Y:00 P:2F SP:FB
C8AD  90 05     BCC  A:00 X:00 Y:00 P:2F SP:FB
C8AF  30 03     BMI  A:00 X:00 Y:00 P:2F SP:FB
C8B1  4C B8 C8  JMP  A:00 X:00 Y:00 P:2F SP:FB
C8B8  EA        NOP  A:00 X:00 Y:00 P:2F SP:FB
C8B9  18        CLC  A:00 X:00 Y:00 P:2F SP:FB
C8BA  24 01     BIT  A:00 X:00 Y:00 P:2E SP:FB
C8BC  A9 55     LDA  A:00 X:00 Y:00 P:EE SP:FB
C8BE  29 AA     AND  A:55 X:00 Y:00 P:6C SP:FB
C8C0  D0 09     BNE  A:00 X:00 Y:00 P:6E SP:FB
C8C2  50 07     BVC  A:00 X:00 Y:00 P:6E SP:FB
C8C4  B0 05     BCS  A:00 X:00 Y:00 P:6E SP:FB
C8C6  30 03     BMI  A:00 X:00 Y:00 P:6E SP:FB
C8C8  4C CF C8  JMP  A:00 X:00 Y:00 P:6E SP:FB
C8CF  EA        NOP  A:00 X:00 Y:00 P:6E SP:FB
C8D0  38        SEC  A:00 X:00 Y:00 P:6E SP:FB
C8D1  B8        CLV  A:00 X:00 Y:00 P:6F SP:FB
C8D2  A9 F8     LDA  A:00 X:00 Y:00 P:2F SP:FB
C8D4  29 EF     AND  A:F8 X:00 Y:00 P:AD SP:FB
C8D6  90 0B     BCC  A:E8 X:00 Y:00 P:AD SP:FB
C8D8  10 09     BPL  A:E8 X:00 Y:00 P:AD SP:FB
C8DA  C9 E8     CMP  A:E8 X:00 Y:00 P:AD SP:FB
C8DC  D0 05     BNE  A:E8 X:00 Y:00 P:2F SP:FB
C8DE  70 03     BVS  A:E8 X:00 Y:00 P:2F SP:FB
C8E0  4C E7 C8  JMP  A:E8 X:00 Y:00 P:2F SP:FB
C8E7  EA        NOP  A:E8 X:00 Y:00 P:2F SP:FB
C8E8  18        CLC  A:E8 X:00 Y:00 P:2F SP:FB
C8E9  24 01     BIT  A:E8 X:00 Y:00 P:2E SP:FB
C8EB  A9 5F     LDA  A:E8 X:00 Y:00 P:EC SP:FB
C8ED  49 AA     EOR  A:5F X:00 Y:00 P:6C SP:FB
C8EF  B0 0B     BCS  A:F5 X:00 Y:00 P:EC SP:FB
C8F1  10 09     BPL  A:F5 X:00 Y:00 P:EC SP:FB
C8F3  C9 F5     CMP  A:F5 X:00 Y:00 P:EC SP:FB
C8F5  D0 05     BNE  A:F5 X:00 Y:00 P:6F SP:FB
C8F7  50 03     BVC  A:F5 X:00 Y:00 P:6F SP:FB
C8F9  4C 00 C9  JMP  A:F5 X:00 Y:00 P:6F SP:FB
C900  EA        NOP  A:F5 X:00 Y:00 P:6F SP:FB
C901  38        SEC  A:F5 X:00 Y:00 P:6F SP:FB
C902  B8        CLV  A:F5 X:00 Y:00 P:6F SP:FB
C903  A9 70     LDA  A:F5 X:00 Y:00 P:2F SP:FB
C905  49 70     EOR  A:70 X:00 Y:00 P:2D SP:FB
C907  D0 09     BNE  A:00 X:00 Y:00 P:2F SP:FB
C909  70 07     BVS  A:00 X:00 Y:00 P:2F SP:FB
C90B  90 05     BCC  A:00 X:00 Y:00 P:2F SP:FB
C90D  30 03     BMI  A:00 X:00 Y:00 P:2F SP:FB
C90F  4C 16 C9  JMP  A:00 X:00 Y:00 P:2F SP:FB
C916  EA        NOP  A:00 X:00 Y:00 P:2F SP:FB
C917  18        CLC  A:00 X:00 Y:00 P:2F SP:FB
C918  24 01     BIT  A:00 X:00 Y:00 P:2E SP:FB
C91A  A9 00     LDA  A:00 X:00 Y:00 P:EE SP:FB
C91C  69 69     ADC  A:00 X:00 Y:00 P:6E SP:FB
C91E  30 0B     BMI  A:69 X:00 Y:00 P:2C SP:FB
C920  B0 09     BCS  A:69 X:00 Y:00 P:2C SP:FB
C922  C9 69     CMP  A:69 X:00 Y:00 P:2C SP:FB
C924  D0 05     BNE  A:69 X:00 Y:00 P:2F SP:FB
C926  70 03     BVS  A:69 X:00 Y:00 P:2F SP:FB
C928  4C 2F C9  JMP  A:69 X:00 Y:00 P:2F SP:FB
C92F  EA        NOP  A:69 X:00 Y:00 P:2F SP:FB
C930  38        SEC  A:69 X:00 Y:00 P:2F SP:FB
C931  F8        SED  A:69 X:00 Y:00 P:2F SP:FB
C932  24 01     BIT  A:69 X:00 Y:00 P:2F SP:FB
C934  A9 01     LDA  A:69 X:00 Y:00 P:ED SP:FB
C936  69 69     ADC  A:01 X:00 Y:00 P:6D SP:FB
C938  30 0B     BMI  A:6B X:00 Y:00 P:2C SP:FB
C93A  B0 09     BCS  A:6B X:00 Y:00 P:2C SP:FB
C93C  C9 6B     CMP  A:6B X:00 Y:00 P:2C SP:FB
C93E  D0 05     BNE  A:6B X:00 Y:00 P:2F SP:FB
C940  70 03     BVS  A:6B X:00 Y:00 P:2F SP:FB
C942  4C 49 C9  JMP  A:6B X:00 Y:00 P:2F SP:FB
C949  EA        NOP  A:6B X:00 Y:00 P:2F SP:FB
C94A  D8        CLD  A:6B X:00 Y:00 P:2F SP:FB
C94B  38        SEC  A:6B X:00 Y:00 P:27 SP:FB
C94C  B8        CLV  A:6B X:00 Y:00 P:27 SP:FB
C94D  A9 7F     LDA  A:6B X:00 Y:00 P:27 SP:FB
C94F  69 7F     ADC  A:7F X:00 Y:00 P:25 SP:FB
C951  10 0B     BPL  A:FF X:00 Y:00 P:E4 SP:FB
C953  B0 09     BCS  A:FF X:00 Y:00 P:E4 SP:FB
C955  C9 FF     CMP  A:FF X:00 Y:00 P:E4 SP:FB
C957  D0 05     BNE  A:FF X:00 Y:00 P:67 SP:FB
C959  50 03     BVC  A:FF X:00 Y:00 P:67 SP:FB
C95B  4C 62 C9  JMP  A:FF X:00 Y:00 P:67 SP:FB
C962  EA        NOP  A:FF X:00 Y:00 P:67 SP:FB
C963  18        CLC  A:FF X:00 Y:00 P:67 SP:FB
C964  24 01     BIT  A:FF X:00 Y:00 P:66 SP:FB
C966  A9 7F     LDA  A:FF X:00 Y:00 P:E4 SP:FB
C968  69 80     ADC  A:7F X:00 Y:00 P:64 SP:FB
C96A  10 0B     BPL  A:FF X:00 Y:00 P:A4 SP:FB
C96C  B0 09     BCS  A:FF X:00 Y:00 P:A4 SP:FB
C96E  C9 FF     CMP  A:FF X:00 Y:00 P:A4 SP:FB
C970  D0 05     BNE  A:FF X:00 Y:00 P:27 SP:FB
C972  70 03     BVS  A:FF X:00 Y:00 P:27 SP:FB
C974  4C 7B C9  JMP  A:FF X:00 Y:00 P:27 SP:FB
C97B  EA        NOP  A:FF X:00 Y:00 P:27 SP:FB
C97C  38        SEC  A:FF X:00 Y:00 P:27 SP:FB
C97D  B8        CLV  A:FF X:00 Y:00 P:27 SP:FB
C97E  A9 7F     LDA  A:FF X:00 Y:00 P:27 SP:FB
C980  69 80     ADC  A:7F X:00 Y:00 P:25 SP:FB
C982  D0 09     BNE  A:00 X:00 Y:00 P:27 SP:FB
C984  30 07     BMI  A:00 X:00 Y:00 P:27 SP:FB
C986  70 05     BVS  A:00 X:00 Y:00 P:27 SP:FB
C988  90 03     BCC  A:00 X:00 Y:00 P:27 SP:FB
C98A  4C 91 C9  JMP  A:00 X:00 Y:00 P:27 SP:FB
C991  EA        NOP  A:00 X:00 Y:00 P:27 SP:FB
C992  38        SEC  A:00 X:00 Y:00 P:27 SP:FB
C993  B8        CLV  A:00 X:00 Y:00 P:27 SP:FB
C994  A9 9F     LDA  A:00 X:00 Y:00 P:27 SP:FB
C996  F0 09     BEQ  A:9F X:00 Y:00 P:A5 SP:FB
C998  10 07     BPL  A:9F X:00 Y:00 P:A5 SP:FB
C99A  70 05     BVS  A:9F X:00 Y:00 P:A5 SP:FB
C99C  90 03     BCC  A:9F X:00 Y:00 P:A5 SP:FB
C99E  4C A5 C9  JMP  A:9F X:00 Y:00 P:A5 SP:FB
C9A5  EA        NOP  A:9F X:00 Y:00 P:A5 SP:FB
C9A6  18        CLC  A:9F X:00 Y:00 P:A5 SP:FB
C9A7  24 01     BIT  A:9F X:00 Y:00 P:A4 SP:FB
C9A9  A9 00     LDA  A:9F X:00 Y:00 P:E4 SP:FB
C9AB  D0 09     BNE  A:00 X:00 Y:00 P:66 SP:FB
C9AD  30 07     BMI  A:00 X:00 Y:00 P:66 SP:FB
C9AF  50 05     BVC  A:00 X:00 Y:00 P:66 SP:FB
C9B1  B0 03     BCS  A:00 X:00 Y:00 P:66 SP:FB
C9B3  4C BA C9  JMP  A:00 X:00 Y:00 P:66 SP:FB
C9BA  EA        NOP  A:00 X:00 Y:00 P:66 SP:FB
C9BB  24 01     BIT  A:00 X:00 Y:00 P:66 SP:FB
C9BD  A9 40     LDA  A:00 X:00 Y:00 P:E6 SP:FB
C9BF  C9 40     CMP  A:40 X:00 Y:00 P:64 SP:FB
C9C1  30 09     BMI  A:40 X:00 Y:00 P:67 SP:FB
C9C3  90 07     BCC  A:40 X:00 Y:00 P:67 SP:FB
C9C5  D0 05     BNE  A:40 X:00 Y:00 P:67 SP:FB
C9C7  50 03     BVC  A:40 X:00 Y:00 P:67 SP:FB
C9C9  4C D0 C9  JMP  A:40 X:00 Y:00 P:67 SP:FB
C9D0  EA        NOP  A:40 X:00 Y:00 P:67 SP:FB
C9D1  B8        CLV  A:40 X:00 Y:00 P:67 SP:FB
C9D2  C9 3F     CMP  A:40 X:00 Y:00 P:27 SP:FB
C9D4  F0 09     BEQ  A:40 X:00 Y:00 P:25 SP:FB
C9D6  30 07     BMI  A:40 X:00 Y:00 P:25 SP:FB
C9D8  90 05     BCC  A:40 X:00 Y:00 P:25 SP:FB
C9DA  70 03     BVS  A:40 X:00 Y:00 P:25 SP:FB
C9DC  4C E3 C9  JMP  A:40 X:00 Y:00 P:25 SP:FB
C9E3  EA        NOP  A:40 X:00 Y:00 P:25 SP:FB
C9E4  C9 41     CMP  A:40 X:00 Y:00 P:25 SP:FB
C9E6  F0 07     BEQ  A:40 X:00 Y:00 P:A4 SP:FB
C9E8  10 05     BPL  A:40 X:00 Y:00 P:A4 SP:FB
C9EA  10 03     BPL  A:40 X:00 Y:00 P:A4 SP:FB
C9EC  4C F3 C9  JMP  A:40 X:00 Y:00 P:A4 SP:FB
C9F3  EA        NOP  A:40 X:00 Y:00 P:A4 SP:FB
C9F4  A9 80     LDA  A:40 X:00 Y:00 P:A4 SP:FB
C9F6  C9 00     CMP  A:80 X:00 Y:00 P:A4 SP:FB
C9F8  F0 07     BEQ  A:80 X:00 Y:00 P:A5 SP:FB
C9FA  10 05     BPL  A:80 X:00 Y:00 P:A5 SP:FB
C9FC  90 03     BCC  A:80 X:00 Y:00 P:A5 SP:FB
C9FE  4C 05 CA  JMP  A:80 X:00 Y:00 P:A5 SP:FB
CA05  EA        NOP  A:80 X:00 Y:00 P:A5 SP:FB
CA06  C9 80     CMP  A:80 X:00 Y:00 P:A5 SP:FB
CA08  D0 07     BNE  A:80 X:00 Y:00 P:27 SP:FB
CA0A  30 05     BMI  A:80 X:00 Y:00 P:27 SP:FB
CA0C  90 03     BCC  A:80 X:00 Y:00 P:27 SP:FB
CA0E  4C 15 CA  JMP  A:80 X:00 Y:00 P:27 SP:FB
CA15  EA        NOP  A:80 X:00 Y:00 P:27 SP:FB
CA16  C9 81     CMP  A:80 X:00 Y:00 P:27 SP:FB
CA18  B0 07     BCS  A:80 X:00 Y:00 P:A4 SP:FB
CA1A  F0 05     BEQ  A:80 X:00 Y:00 P:A4 SP:FB
CA1C  10 03     BPL  A:80 X:00 Y:00 P:A4 SP:FB
CA1E  4C 25 CA  JMP  A:80 X:00 Y:00 P:A4 SP:FB
CA25  EA        NOP  A:80 X:00 Y:00 P:A4 SP:FB
CA26  C9 7F     CMP  A:80 X:00 Y:00 P:A4 SP:FB
CA28  90 07     BCC  A:80 X:00 Y:00 P:25 SP:FB
CA2A  F0 05     BEQ  A:80 X:00 Y:00 P:25 SP:FB
CA2C  30 03     BMI  A:80 X:00 Y:00 P:25 SP:FB
CA2E  4C 35 CA  JMP  A:80 X:00 Y:00 P:25 SP:FB
CA35  EA        NOP  A:80 X:00 Y:00 P:25 SP:FB
CA36  24 01     BIT  A:80 X:00 Y:00 P:25 SP:FB
CA38  A0 40     LDY  A:80 X:00 Y:00 P:E5 SP:FB
CA3A  C0 40     CPY  A:80 X:00 Y:40 P:65 SP:FB
CA3C  D0 09     BNE  A:80 X:00 Y:40 P:67 SP:FB
CA3E  30 07     BMI  A:80 X:00 Y:40 P:67 SP:FB
CA40  90 05     BCC  A:80 X:00 Y:40 P:67 SP:FB
CA42  50 03     BVC  A:80 X:00 Y:40 P:67 SP:FB
CA44  4C 4B CA  JMP  A:80 X:00 Y:40 P:67 SP:FB
CA4B  EA        NOP  A:80 X:00 Y:40 P:67 SP:FB
CA4C  B8        CLV  A:80 X:00 Y:40 P:67 SP:FB
CA4D  C0 3F     CPY  A:80 X:00 Y:40 P:27 SP:FB
CA4F  F0 09     BEQ  A:80 X:00 Y:40 P:25 SP:FB
CA51  30 07     BMI  A:80 X:00 Y:40 P:25 SP:FB
CA53  90 05     BCC  A:80 X:00 Y:40 P:25 SP:FB
CA55  70 03     BVS  A:80 X:00 Y:40 P:25 SP:FB
CA57  4C 5E CA  JMP  A:80 X:00 Y:40 P:25 SP:FB
CA5E  EA        NOP  A:80 X:00 Y:40 P:25 SP:FB
CA5F  C0 41     CPY  A:80 X:00 Y:40 P:25 SP:FB
CA61  F0 07     BEQ  A:80 X:00 Y:40 P:A4 SP:FB
CA63  10 05     BPL  A:80 X:00 Y:40 P:A4 SP:FB
CA65  10 03     BPL  A:80 X:00 Y:40 P:A4 SP:FB
CA67  4C 6E CA  JMP  A:80 X:00 Y:40 P:A4 SP:FB
CA6E  EA        NOP  A:80 X:00 Y:40 P:A4 SP:FB
CA6F  A0 80     LDY  A:80 X:00 Y:40 P:A4 SP:FB
CA71  C0 00     CPY  A:80 X:00 Y:80 P:A4 SP:FB
CA73  F0 07     BEQ  A:80 X:00 Y:80 P:A5 SP:FB
CA75  10 05     BPL  A:80 X:00 Y:80 P:A5 SP:FB
CA77  90 03     BCC  A:80 X:00 Y:80 P:A5 SP:FB
CA79  4C 80 CA  JMP  A:80 X:00 Y:80 P:A5 SP:FB
CA80  EA        NOP  A:80 X:00 Y:80 P:A5 SP:FB
CA81  C0 80     CPY  A:80 X:00 Y:80 P:A5 SP:FB
CA83  D0 07     BNE  A:80 X:00 Y:80 P:27 SP:FB
CA85  30 05     BMI  A:80 X:00 Y:80 P:27 SP:FB
CA87  90 03     BCC  A:80 X:00 Y:80 P:27 SP:FB
CA89  4C 90 CA  JMP  A:80 X:00 Y:80 P:27 SP:FB
CA90  EA        NOP  A:80 X:00 Y:80 P:27 SP:FB
CA91  C0 81     CPY  A:80 X:00 Y:80 P:27 SP:FB
CA93  B0 07     BCS  A:80 X:00 Y:80 P:A4 SP:FB
CA95  F0 05     BEQ  A:80 X:00 Y:80 P:A4 SP:FB
CA97  10 03     BPL  A:80 X:00 Y:80 P:A4 SP:FB
CA99  4C A0 CA  JMP  A:80 X:00 Y:80 P:A4 SP:FB
CAA0  EA        NOP  A:80 X:00 Y:80 P:A4 SP:FB
CAA1  C0 7F     CPY  A:80 X:00 Y:80 P:A4 SP:FB
CAA3  90 07     BCC  A:80 X:00 Y:80 P:25 SP:FB
CAA5  F0 05     BEQ  A:80 X:00 Y:80 P:25 SP:FB
CAA7  30 03     BMI  A:80 X:00 Y:80 P:25 SP:FB
CAA9  4C B0 CA  JMP  A:80 X:00 Y:80 P:25 SP:FB
CAB0  EA        NOP  A:80 X:00 Y:80 P:25 SP:FB
CAB1  24 01     BIT  A:80 X:00 Y:80 P:25 SP:FB
CAB3  A2 40     LDX  A:80 X:00 Y:80 P:E5 SP:FB
CAB5  E0 40     CPX  A:80 X:40 Y:80 P:65 SP:FB
CAB7  D0 09     BNE  A:80 X:40 Y:80 P:67 SP:FB
CAB9  30 07     BMI  A:80 X:40 Y:80 P:67 SP:FB
CABB  90 05     BCC  A:80 X:40 Y:80 P:67 SP:FB
CABD  50 03     BVC  A:80 X:40 Y:80 P:67 SP:FB
CABF  4C C6 CA  JMP  A:80 X:40 Y:80 P:67 SP:FB
CAC6  EA        NOP  A:80 X:40 Y:80 P:67 SP:FB
CAC7  B8        CLV  A:80 X:40 Y:80 P:67 SP:FB
CAC8  E0 3F     CPX  A:80 X:40 Y:80 P:27 SP:FB
CACA  F0 09     BEQ  A:80 X:40 Y:80 P:25 SP:FB
CACC  30 07     BMI  A:80 X:40 Y:80 P:25 SP:FB
CACE  90 05     BCC  A:80 X:40 Y:80 P:25 SP:FB
CAD0  70 03     BVS  A:80 X:40 Y:80 P:25 SP:FB
CAD2  4C D9 CA  JMP  A:80 X:40 Y:80 P:25 SP:FB
CAD9  EA        NOP  A:80 X:40 Y:80 P:25 SP:FB
CADA  E0 41     CPX  A:80 X:40 Y:80 P:25 SP:FB
CADC  F0 07     BEQ  A:80 X:40 Y:80 P:A4 SP:FB
CADE  10 05     BPL  A:80 X:40 Y:80 P:A4 SP:FB
CAE0  10 03     BPL  A:80 X:40 Y:80 P:A4 SP:FB
CAE2  4C E9 CA  JMP  A:80 X:40 Y:80 P:A4 SP:FB
CAE9  EA        NOP  A:80 X:40 Y:80 P:A4 SP:FB
CAEA  A2 80     LDX  A:80 X:40 Y:80 P:A4 SP:FB
CAEC  E0 00     CPX  A:80 X:80 Y:80 P:A4 SP:FB
CAEE  F0 07     BEQ  A:80 X:80 Y:80 P:A5 SP:FB
CAF0  10 05     BPL  A:80 X:80 Y:80 P:A5 SP:FB
CAF2  90 03     BCC  A:80 X:80 Y:80 P:A5 SP:FB
CAF4  4C FB CA  JMP  A:80 X:80 Y:80 P:A5 SP:FB
CAFB  EA        NOP  A:80 X:80 Y:80 P:A5 SP:FB
CAFC  E0 80     CPX  A:80 X:80 Y:80 P:A5 SP:FB
CAFE  D0 07     BNE  A:80 X:80 Y:80 P:27 SP:FB
CB00  30 05     BMI  A:80 X:80 Y:80 P:27 SP:FB
CB02  90 03     BCC  A:80 X:80 Y:80 P:27 SP:FB
CB04  4C 0B CB  JMP  A:80 X:80 Y:80 P:27 SP:FB
CB0B  EA        NOP  A:80 X:80 Y:80 P:27 SP:FB
CB0C  E0 81     CPX  A:80 X:80 Y:80 P:27 SP:FB
CB0E  B0 07     BCS  A:80 X:80 Y:80 P:A4 SP:FB
CB10  F0 05     BEQ  A:80 X:80 Y:80 P:A4 SP:FB
CB12  10 03     BPL  A:80 X:80 Y:80 P:A4 SP:FB
CB14  4C 1B CB  JMP  A:80 X:80 Y:80 P:A4 SP:FB
CB1B  EA        NOP  A:80 X:80 Y:80 P:A4 SP:FB
CB1C  E0 7F     CPX  A:80 X:80 Y:80 P:A4 SP:FB
CB1E  90 07     BCC  A:80 X:80 Y:80 P:25 SP:FB
CB20  F0 05     BEQ  A:80 X:80 Y:80 P:25 SP:FB
CB22  30 03     BMI  A:80 X:80 Y:80 P:25 SP:FB
CB24  4C 2B CB  JMP  A:80 X:80 Y:80 P:25 SP:FB
CB2B  EA        NOP  A:80 X:80 Y:80 P:25 SP:FB
CB2C  38        SEC  A:80 X:80 Y:80 P:25 SP:FB
CB2D  B8        CLV  A:80 X:80 Y:80 P:25 SP:FB
CB2E  A2 9F     LDX  A:80 X:80 Y:80 P:25 SP:FB
CB30  F0 09     BEQ  A:80 X:9F Y:80 P:A5 SP:FB
CB32  10 07     BPL  A:80 X:9F Y:80 P:A5 SP:FB
CB34  70 05     BVS  A:80 X:9F Y:80 P:A5 SP:FB
CB36  90 03     BCC  A:80 X:9F Y:80 P:A5 SP:FB
CB38  4C 3F CB  JMP  A:80 X:9F Y:80 P:A5 SP:FB
CB3F  EA        NOP  A:80 X:9F Y:80 P:A5 SP:FB
CB40  18        CLC  A:80 X:9F Y:80 P:A5 SP:FB
CB41  24 01     BIT  A:80 X:9F Y:80 P:A4 SP:FB
CB43  A2 00     LDX  A:80 X:9F Y:80 P:E4 SP:FB
CB45  D0 09     BNE  A:80 X:00 Y:80 P:66 SP:FB
CB47  30 07     BMI  A:80 X:00 Y:80 P:66 SP:FB
CB49  50 05     BVC  A:80 X:00 Y:80 P:66 SP:FB
CB4B  B0 03     BCS  A:80 X:00 Y:80 P:66 SP:FB
CB4D  4C 54 CB  JMP  A:80 X:00 Y:80 P:66 SP:FB
CB54  EA        NOP  A:80 X:00 Y:80 P:66 SP:FB
CB55  38        SEC  A:80 X:00 Y:80 P:66 SP:FB
CB56  B8        CLV  A:80 X:00 Y:80 P:67 SP:FB
CB57  A0 9F     LDY  A:80 X:00 Y:80 P:27 SP:FB
CB59  F0 09     BEQ  A:80 X:00 Y:9F P:A5 SP:FB
CB5B  10 07     BPL  A:80 X:00 Y:9F P:A5 SP:FB
CB5D  70 05     BVS  A:80 X:00 Y:9F P:A5 SP:FB
CB5F  90 03     BCC  A:80 X:00 Y:9F P:A5 SP:FB
CB61  4C 68 CB  JMP  A:80 X:00 Y:9F P:A5 SP:FB
CB68  EA        NOP  A:80 X:00 Y:9F P:A5 SP:FB
CB69  18        CLC  A:80 X:00 Y:9F P:A5 SP:FB
CB6A  24 01     BIT  A:80 X:00 Y:9F P:A4 SP:FB
CB6C  A0 00     LDY  A:80 X:00 Y:9F P:E4 SP:FB
CB6E  D0 09     BNE  A:80 X:00 Y:00 P:66 SP:FB
CB70  30 07     BMI  A:80 X:00 Y:00 P:66 SP:FB
CB72  50 05     BVC  A:80 X:00 Y:00 P:66 SP:FB
CB74  B0 03     BCS  A:80 X:00 Y:00 P:66 SP:FB
CB76  4C 7D CB  JMP  A:80 X:00 Y:00 P:66 SP:FB
CB7D  EA        NOP  A:80 X:00 Y:00 P:66 SP:FB
CB7E  A9 55     LDA  A:80 X:00 Y:00 P:66 SP:FB
CB80  A2 AA     LDX  A:55 X:00 Y:00 P:64 SP:FB
CB82  A0 33     LDY  A:55 X:AA Y:00 P:E4 SP:FB
CB84  C9 55     CMP  A:55 X:AA Y:33 P:64 SP:FB
CB86  D0 23     BNE  A:55 X:AA Y:33 P:67 SP:FB
CB88  E0 AA     CPX  A:55 X:AA Y:33 P:67 SP:FB
CB8A  D0 1F     BNE  A:55 X:AA Y:33 P:67 SP:FB
CB8C  C0 33     CPY  A:55 X:AA Y:33 P:67 SP:FB
CB8E  D0 1B     BNE  A:55 X:AA Y:33 P:67 SP:FB
CB90  C9 55     CMP  A:55 X:AA Y:33 P:67 SP:FB
CB92  D0 17     BNE  A:55 X:AA Y:33 P:67 SP:FB
CB94  E0 AA     CPX  A:55 X:AA Y:33 P:67 SP:FB
CB96  D0 13     BNE  A:55 X:AA Y:33 P:67 SP:FB
CB98  C0 33     CPY  A:55 X:AA Y:33 P:67 SP:FB
CB9A  D0 0F     BNE  A:55 X:AA Y:33 P:67 SP:FB
CB9C  C9 56     CMP  A:55 X:AA Y:33 P:67 SP:FB
CB9E  F0 0B     BEQ  A:55 X:AA Y:33 P:E4 SP:FB
CBA0  E0 AB     CPX  A:55 X:AA Y:33 P:E4 SP:FB
CBA2  F0 07     BEQ  A:55 X:AA Y:33 P:E4 SP:FB
CBA4  C0 34     CPY  A:55 X:AA Y:33 P:E4 SP:FB
CBA6  F0 03     BEQ  A:55 X:AA Y:33 P:E4 SP:FB
CBA8  4C AF CB  JMP  A:55 X:AA Y:33 P:E4 SP:FB
CBAF  A0 71     LDY  A:55 X:AA Y:33 P:E4 SP:FB
CBB1  20 31 F9  JSR  A:55 X:AA Y:71 P:64 SP:FB
F931  24 01     BIT  A:55 X:AA Y:71 P:64 SP:F9
F933  A9 40     LDA  A:55 X:AA Y:71 P:E4 SP:F9
F935  38        SEC  A:40 X:AA Y:71 P:64 SP:F9
F936  60        RTS  A:40 X:AA Y:71 P:65 SP:F9
CBB4  E9 40     SBC  A:40 X:AA Y:71 P:65 SP:FB
CBB6  20 37 F9  JSR  A:00 X:AA Y:71 P:27 SP:FB
F937  30 0B     BMI  A:00 X:AA Y:71 P:27 SP:F9
F939  90 09     BCC  A:00 X:AA Y:71 P:27 SP:F9
F93B  D0 07     BNE  A:00 X:AA Y:71 P:27 SP:F9
F93D  70 05     BVS  A:00 X:AA Y:71 P:27 SP:F9
F93F  C9 00     CMP  A:00 X:AA Y:71 P:27 SP:F9
F941  D0 01     BNE  A:00 X:AA Y:71 P:27 SP:F9
F943  60        RTS  A:00 X:AA Y:71 P:27 SP:F9
CBB9  C8        INY  A:00 X:AA Y:71 P:27 SP:FB
CBBA  20 47 F9  JSR  A:00 X:AA Y:72 P:25 SP:FB
F947  B8        CLV  A:00 X:AA Y:72 P:25 SP:F9
F948  38        SEC  A:00 X:AA Y:72 P:25 SP:F9
F949  A9 40     LDA  A:00 X:AA Y:72 P:25 SP:F9
F94B  60        RTS  A:40 X:AA Y:72 P:25 SP:F9
CBBD  E9 3F     SBC  A:40 X:AA Y:72 P:25 SP:FB
CBBF  20 4C F9  JSR  A:01 X:AA Y:72 P:25 SP:FB
F94C  F0 0B     BEQ  A:01 X:AA Y:72 P:25 SP:F9
F94E  30 09     BMI  A:01 X:AA Y:72 P:25 SP:F9
F950  90 07     BCC  A:01 X:AA Y:72 P:25 SP:F9
F952  70 05     BVS  A:01 X:AA Y:72 P:25 SP:F9
F954  C9 01     CMP  A:01 X:AA Y:72 P:25 SP:F9
F956  D0 01     BNE  A:01 X:AA Y:72 P:27 SP:F9
F958  60        RTS  A:01 X:AA Y:72 P:27 SP:F9
CBC2  C8        INY  A:01 X:AA Y:72 P:27 SP:FB
CBC3  20 5C F9  JSR  A:01 X:AA Y:73 P:25 SP:FB
F95C  A9 40     LDA  A:01 X:AA Y:73 P:25 SP:F9
F95E  38        SEC  A:40 X:AA Y:73 P:25 SP:F9
F95F  24 01     BIT  A:40 X:AA Y:73 P:25 SP:F9
F961  60        RTS  A:40 X:AA Y:73 P:E5 SP:F9
CBC6  E9 41     SBC  A:40 X:AA Y:73 P:E5 SP:FB
CBC8  20 62 F9  JSR  A:FF X:AA Y:73 P:A4 SP:FB
F962  B0 0B     BCS  A:FF X:AA Y:73 P:A4 SP:F9
F964  F0 09     BEQ  A:FF X:AA Y:73 P:A4 SP:F9
F966  10 07     BPL  A:FF X:AA Y:73 P:A4 SP:F9
F968  70 05     BVS  A:FF X:AA Y:73 P:A4 SP:F9
F96A  C9 FF     CMP  A:FF X:AA Y:73 P:A4 SP:F9
F96C  D0 01     BNE  A:FF X:AA Y:73 P:27 SP:F9
F96E  60        RTS  A:FF X:AA Y:73 P:27 SP:F9
CBCB  C8        INY  A:FF X:AA Y:73 P:27 SP:FB
CBCC  20 72 F9  JSR  A:FF X:AA Y:74 P:25 SP:FB
F972  18        CLC  A:FF X:AA Y:74 P:25 SP:F9
F973  A9 80     LDA  A:FF X:AA Y:74 P:24 SP:F9
F975  60        RTS  A:80 X:AA Y:74 P:A4 SP:F9
CBCF  E9 00     SBC  A:80 X:AA Y:74 P:A4 SP:FB
CBD1  20 76 F9  JSR  A:7F X:AA Y:74 P:65 SP:FB
F976  90 05     BCC  A:7F X:AA Y:74 P:65 SP:F9
F978  C9 7F     CMP  A:7F X:AA Y:74 P:65 SP:F9
F97A  D0 01     BNE  A:7F X:AA Y:74 P:67 SP:F9
F97C  60        RTS  A:7F X:AA Y:74 P:67 SP:F9
CBD4  C8        INY  A:7F X:AA Y:74 P:67 SP:FB
CBD5  20 80 F9  JSR  A:7F X:AA Y:75 P:65 SP:FB
F980  38        SEC  A:7F X:AA Y:75 P:65 SP:F9
F981  A9 81     LDA  A:7F X:AA Y:75 P:65 SP:F9
F983  60        RTS  A:81 X:AA Y:75 P:E5 SP:F9
CBD8  E9 7F     SBC  A:81 X:AA Y:75 P:E5 SP:FB
CBDA  20 84 F9  JSR  A:02 X:AA Y:75 P:65 SP:FB
F984  50 07     BVC  A:02 X:AA Y:75 P:65 SP:F9
F986  90 05     BCC  A:02 X:AA Y:75 P:65 SP:F9
F988  C9 02     CMP  A:02 X:AA Y:75 P:65 SP:F9
F98A  D0 01     BNE  A:02 X:AA Y:75 P:67 SP:F9
F98C  60        RTS  A:02 X:AA Y:75 P:67 SP:F9
CBDD  60        RTS  A:02 X:AA Y:75 P:67 SP:FB
C606  20 DE CB  JSR  A:02 X:AA Y:75 P:67 SP:FD
CBDE  EA        NOP  A:02 X:AA Y:75 P:67 SP:FB
CBDF  A9 FF     LDA  A:02 X:AA Y:75 P:67 SP:FB
CBE1  85 01     STA  A:FF X:AA Y:75 P:E5 SP:FB
CBE3  A9 44     LDA  A:FF X:AA Y:75 P:E5 SP:FB
CBE5  A2 55     LDX  A:44 X:AA Y:75 P:65 SP:FB
CBE7  A0 66     LDY  A:44 X:55 Y:75 P:65 SP:FB
CBE9  E8        INX  A:44 X:55 Y:66 P:65 SP:FB
CBEA  88        DEY  A:44 X:56 Y:66 P:65 SP:FB
CBEB  E0 56     CPX  A:44 X:56 Y:65 P:65 SP:FB
CBED  D0 21     BNE  A:44 X:56 Y:65 P:67 SP:FB
CBEF  C0 65     CPY  A:44 X:56 Y:65 P:67 SP:FB
CBF1  D0 1D     BNE  A:44 X:56 Y:65 P:67 SP:FB
CBF3  E8        INX  A:44 X:56 Y:65 P:67 SP:FB
CBF4  E8        INX  A:44 X:57 Y:65 P:65 SP:FB
CBF5  88        DEY  A:44 X:58 Y:65 P:65 SP:FB
CBF6  88        DEY  A:44 X:58 Y:64 P:65 SP:FB
CBF7  E0 58     CPX  A:44 X:58 Y:63 P:65 SP:FB
CBF9  D0 15     BNE  A:44 X:58 Y:63 P:67 SP:FB
CBFB  C0 63     CPY  A:44 X:58 Y:63 P:67 SP:FB
CBFD  D0 11     BNE  A:44 X:58 Y:63 P:67 SP:FB
CBFF  CA        DEX  A:44 X:58 Y:63 P:67 SP:FB
CC00  C8        INY  A:44 X:57 Y:63 P:65 SP:FB
CC01  E0 57     CPX  A:44 X:57 Y:64 P:65 SP:FB
CC03  D0 0B     BNE  A:44 X:57 Y:64 P:67 SP:FB
CC05  C0 64     CPY  A:44 X:57 Y:64 P:67 SP:FB
CC07  D0 07     BNE  A:44 X:57 Y:64 P:67 SP:FB
CC09  C9 44     CMP  A:44 X:57 Y:64 P:67 SP:FB
CC0B  D0 03     BNE  A:44 X:57 Y:64 P:67 SP:FB
CC0D  4C 14 CC  JMP  A:44 X:57 Y:64 P:67 SP:FB
CC14  EA        NOP  A:44 X:57 Y:64 P:67 SP:FB
CC15  38        SEC  A:44 X:57 Y:64 P:67 SP:FB
CC16  A2 69     LDX  A:44 X:57 Y:64 P:67 SP:FB
CC18  A9 96     LDA  A:44 X:69 Y:64 P:65 SP:FB
CC1A  24 01     BIT  A:96 X:69 Y:64 P:E5 SP:FB
CC1C  A0 FF     LDY  A:96 X:69 Y:64 P:E5 SP:FB
CC1E  C8        INY  A:96 X:69 Y:FF P:E5 SP:FB
CC1F  D0 3D     BNE  A:96 X:69 Y:00 P:67 SP:FB
CC21  30 3B     BMI  A:96 X:69 Y:00 P:67 SP:FB
CC23  90 39     BCC  A:96 X:69 Y:00 P:67 SP:FB
CC25  50 37     BVC  A:96 X:69 Y:00 P:67 SP:FB
CC27  C0 00     CPY  A:96 X:69 Y:00 P:67 SP:FB
CC29  D0 33     BNE  A:96 X:69 Y:00 P:67 SP:FB
CC2B  C8        INY  A:96 X:69 Y:00 P:67 SP:FB
CC2C  F0 30     BEQ  A:96 X:69 Y:01 P:65 SP:FB
CC2E  30 2E     BMI  A:96 X:69 Y:01 P:65 SP:FB
CC30  90 2C     BCC  A:96 X:69 Y:01 P:65 SP:FB
CC32  50 2A     BVC  A:96 X:69 Y:01 P:65 SP:FB
CC34  18        CLC  A:96 X:69 Y:01 P:65 SP:FB
CC35  B8        CLV  A:96 X:69 Y:01 P:64 SP:FB
CC36  A0 00     LDY  A:96 X:69 Y:01 P:24 SP:FB
CC38  88        DEY  A:96 X:69 Y:00 P:26 SP:FB
CC39  F0 23     BEQ  A:96 X:69 Y:FF P:A4 SP:FB
CC3B  10 21     BPL  A:96 X:69 Y:FF P:A4 SP:FB
CC3D  B0 1F     BCS  A:96 X:69 Y:FF P:A4 SP:FB
CC3F  70 1D     BVS  A:96 X:69 Y:FF P:A4 SP:FB
CC41  C0 FF     CPY  A:96 X:69 Y:FF P:A4 SP:FB
CC43  D0 19     BNE  A:96 X:69 Y:FF P:27 SP:FB
CC45  18        CLC  A:96 X:69 Y:FF P:27 SP:FB
CC46  88        DEY  A:96 X:69 Y:FF P:26 SP:FB
CC47  F0 15     BEQ  A:96 X:69 Y:FE P:A4 SP:FB
CC49  10 13     BPL  A:96 X:69 Y:FE P:A4 SP:FB
CC4B  B0 11     BCS  A:96 X:69 Y:FE P:A4 SP:FB
CC4D  70 0F     BVS  A:96 X:69 Y:FE P:A4 SP:FB
CC4F  C0 FE     CPY  A:96 X:69 Y:FE P:A4 SP:FB
CC51  D0 0B     BNE  A:96 X:69 Y:FE P:27 SP:FB
CC53  C9 96     CMP  A:96 X:69 Y:FE P:27 SP:FB
CC55  D0 07     BNE  A:96 X:69 Y:FE P:27 SP:FB
CC57  E0 69     CPX  A:96 X:69 Y:FE P:27 SP:FB
CC59  D0 03     BNE  A:96 X:69 Y:FE P:27 SP:FB
CC5B  4C 62 CC  JMP  A:96 X:69 Y:FE P:27 SP:FB
CC62  EA        NOP  A:96 X:69 Y:FE P:27 SP:FB
CC63  38        SEC  A:96 X:69 Y:FE P:27 SP:FB
CC64  A0 69     LDY  A:96 X:69 Y:FE P:27 SP:FB
CC66  A9 96     LDA  A:96 X:69 Y:69 P:25 SP:FB
CC68  24 01     BIT  A:96 X:69 Y:69 P:A5 SP:FB
CC6A  A2 FF     LDX  A:96 X:69 Y:69 P:E5 SP:FB
CC6C  E8        INX  A:96 X:FF Y:69 P:E5 SP:FB
CC6D  D0 3D     BNE  A:96 X:00 Y:69 P:67 SP:FB
CC6F  30 3B     BMI  A:96 X:00 Y:69 P:67 SP:FB
CC71  90 39     BCC  A:96 X:00 Y:69 P:67 SP:FB
CC73  50 37     BVC  A:96 X:00 Y:69 P:67 SP:FB
CC75  E0 00     CPX  A:96 X:00 Y:69 P:67 SP:FB
CC77  D0 33     BNE  A:96 X:00 Y:69 P:67 SP:FB
CC79  E8        INX  A:96 X:00 Y:69 P:67 SP:FB
CC7A  F0 30     BEQ  A:96 X:01 Y:69 P:65 SP:FB
CC7C  30 2E     BMI  A:96 X:01 Y:69 P:65 SP:FB
CC7E  90 2C     BCC  A:96 X:01 Y:69 P:65 SP:FB
CC80  50 2A     BVC  A:96 X:01 Y:69 P:65 SP:FB
CC82  18        CLC  A:96 X:01 Y:69 P:65 SP:FB
CC83  B8        CLV  A:96 X:01 Y:69 P:64 SP:FB
CC84  A2 00     LDX  A:96 X:01 Y:69 P:24 SP:FB
CC86  CA        DEX  A:96 X:00 Y:69 P:26 SP:FB
CC87  F0 23     BEQ  A:96 X:FF Y:69 P:A4 SP:FB
CC89  10 21     BPL  A:96 X:FF Y:69 P:A4 SP:FB
CC8B  B0 1F     BCS  A:96 X:FF Y:69 P:A4 SP:FB
CC8D  70 1D     BVS  A:96 X:FF Y:69 P:A4 SP:FB
CC8F  E0 FF     CPX  A:96 X:FF Y:69 P:A4 SP:FB
CC91  D0 19     BNE  A:96 X:FF Y:69 P:27 SP:FB
CC93  18        CLC  A:96 X:FF Y:69 P:27 SP:FB
CC94  CA        DEX  A:96 X:FF Y:69 P:26 SP:FB
CC95  F0 15     BEQ  A:96 X:FE Y:69 P:A4 SP:FB
CC97  10 13     BPL  A:96 X:FE Y:69 P:A4 SP:FB
CC99  B0 11     BCS  A:96 X:FE Y:69 P:A4 SP:FB
CC9B  70 0F     BVS  A:96 X:FE Y:69 P:A4 SP:FB
CC9D  E0 FE     CPX  A:96 X:FE Y:69 P:A4 SP:FB
CC9F  D0 0B     BNE  A:96 X:FE Y:69 P:27 SP:FB
CCA1  C9 96     CMP  A:96 X:FE Y:69 P:27 SP:FB
CCA3  D0 07     BNE  A:96 X:FE Y:69 P:27 SP:FB
CCA5  C0 69     CPY  A:96 X:FE Y:69 P:27 SP:FB
CCA7  D0 03     BNE  A:96 X:FE Y:69 P:27 SP:FB
CCA9  4C B0 CC  JMP  A:96 X:FE Y:69 P:27 SP:FB
CCB0  EA        NOP  A:96 X:FE Y:69 P:27 SP:FB
CCB1  A9 85     LDA  A:96 X:FE Y:69 P:27 SP:FB
CCB3  A2 34     LDX  A:85 X:FE Y:69 P:A5 SP:FB
CCB5  A0 99     LDY  A:85 X:34 Y:69 P:25 SP:FB
CCB7  18        CLC  A:85 X:34 Y:99 P:A5 SP:FB
CCB8  24 01     BIT  A:85 X:34 Y:99 P:A4 SP:FB
CCBA  A8        TAY  A:85 X:34 Y:99 P:E4 SP:FB
CCBB  F0 2E     BEQ  A:85 X:34 Y:85 P:E4 SP:FB
CCBD  B0 2C     BCS  A:85 X:34 Y:85 P:E4 SP:FB
CCBF  50 2A     BVC  A:85 X:34 Y:85 P:E4 SP:FB
CCC1  10 28     BPL  A:85 X:34 Y:85 P:E4 SP:FB
CCC3  C9 85     CMP  A:85 X:34 Y:85 P:E4 SP:FB
CCC5  D0 24     BNE  A:85 X:34 Y:85 P:67 SP:FB
CCC7  E0 34     CPX  A:85 X:34 Y:85 P:67 SP:FB
CCC9  D0 20     BNE  A:85 X:34 Y:85 P:67 SP:FB
CCCB  C0 85     CPY  A:85 X:34 Y:85 P:67 SP:FB
CCCD  D0 1C     BNE  A:85 X:34 Y:85 P:67 SP:FB
CCCF  A9 00     LDA  A:85 X:34 Y:85 P:67 SP:FB
CCD1  38        SEC  A:00 X:34 Y:85 P:67 SP:FB
CCD2  B8        CLV  A:00 X:34 Y:85 P:67 SP:FB
CCD3  A8        TAY  A:00 X:34 Y:85 P:27 SP:FB
CCD4  D0 15     BNE  A:00 X:34 Y:00 P:27 SP:FB
CCD6  90 13     BCC  A:00 X:34 Y:00 P:27 SP:FB
CCD8  70 11     BVS  A:00 X:34 Y:00 P:27 SP:FB
CCDA  30 0F     BMI  A:00 X:34 Y:00 P:27 SP:FB
CCDC  C9 00     CMP  A:00 X:34 Y:00 P:27 SP:FB
CCDE  D0 0B     BNE  A:00 X:34 Y:00 P:27 SP:FB
CCE0  E0 34     CPX  A:00 X:34 Y:00 P:27 SP:FB
CCE2  D0 07     BNE  A:00 X:34 Y:00 P:27 SP:FB
CCE4  C0 00     CPY  A:00 X:34 Y:00 P:27 SP:FB
CCE6  D0 03     BNE  A:00 X:34 Y:00 P:27 SP:FB
CCE8  4C EF CC  JMP  A:00 X:34 Y:00 P:27 SP:FB
CCEF  EA        NOP  A:00 X:34 Y:00 P:27 SP:FB
CCF0  A9 85     LDA  A:00 X:34 Y:00 P:27 SP:FB
CCF2  A2 34     LDX  A:85 X:34 Y:00 P:A5 SP:FB
CCF4  A0 99     LDY  A:85 X:34 Y:00 P:25 SP:FB
CCF6  18        CLC  A:85 X:34 Y:99 P:A5 SP:FB
CCF7  24 01     BIT  A:85 X:34 Y:99 P:A4 SP:FB
CCF9  AA        TAX  A:85 X:34 Y:99 P:E4 SP:FB
CCFA  F0 2E     BEQ  A:85 X:85 Y:99 P:E4 SP:FB
CCFC  B0 2C     BCS  A:85 X:85 Y:99 P:E4 SP:FB
CCFE  50 2A     BVC  A:85 X:85 Y:99 P:E4 SP:FB
CD00  10 28     BPL  A:85 X:85 Y:99 P:E4 SP:FB
CD02  C9 85     CMP  A:85 X:85 Y:99 P:E4 SP:FB
CD04  D0 24     BNE  A:85 X:85 Y:99 P:67 SP:FB
CD06  E0 85     CPX  A:85 X:85 Y:99 P:67 SP:FB
CD08  D0 20     BNE  A:85 X:85 Y:99 P:67 SP:FB
CD0A  C0 99     CPY  A:85 X:85 Y:99 P:67 SP:FB
CD0C  D0 1C     BNE  A:85 X:85 Y:99 P:67 SP:FB
CD0E  A9 00     LDA  A:85 X:85 Y:99 P:67 SP:FB
CD10  38        SEC  A:00 X:85 Y:99 P:67 SP:FB
CD11  B8        CLV  A:00 X:85 Y:99 P:67 SP:FB
CD12  AA        TAX  A:00 X:85 Y:99 P:27 SP:FB
CD13  D0 15     BNE  A:00 X:00 Y:99 P:27 SP:FB
CD15  90 13     BCC  A:00 X:00 Y:99 P:27 SP:FB
CD17  70 11     BVS  A:00 X:00 Y:99 P:27 SP:FB
CD19  30 0F     BMI  A:00 X:00 Y:99 P:27 SP:FB
CD1B  C9 00     CMP  A:00 X:00 Y:99 P:27 SP:FB
CD1D  D0 0B     BNE  A:00 X:00 Y:99 P:27 SP:FB
CD1F  E0 00     CPX  A:00 X:00 Y:99 P:27 SP:FB
CD21  D0 07     BNE  A:00 X:00 Y:99 P:27 SP:FB
CD23  C0 99     CPY  A:00 X:00 Y:99 P:27 SP:FB
CD25  D0 03     BNE  A:00 X:00 Y:99 P:27 SP:FB
CD27  4C 2E CD  JMP  A:00 X:00 Y:99 P:27 SP:FB
CD2E  EA        NOP  A:00 X:00 Y:99 P:27 SP:FB
CD2F  A9 85     LDA  A:00 X:00 Y:99 P:27 SP:FB
CD31  A2 34     LDX  A:85 X:00 Y:99 P:A5 SP:FB
CD33  A0 99     LDY  A:85 X:34 Y:99 P:25 SP:FB
CD35  18        CLC  A:85 X:34 Y:99 P:A5 SP:FB
CD36  24 01     BIT  A:85 X:34 Y:99 P:A4 SP:FB
CD38  98        TYA  A:85 X:34 Y:99 P:E4 SP:FB
CD39  F0 2E     BEQ  A:99 X:34 Y:99 P:E4 SP:FB
CD3B  B0 2C     BCS  A:99 X:34 Y:99 P:E4 SP:FB
CD3D  50 2A     BVC  A:99 X:34 Y:99 P:E4 SP:FB
CD3F  10 28     BPL  A:99 X:34 Y:99 P:E4 SP:FB
CD41  C9 99     CMP  A:99 X:34 Y:99 P:E4 SP:FB
CD43  D0 24     BNE  A:99 X:34 Y:99 P:67 SP:FB
CD45  E0 34     CPX  A:99 X:34 Y:99 P:67 SP:FB
CD47  D0 20     BNE  A:99 X:34 Y:99 P:67 SP:FB
CD49  C0 99     CPY  A:99 X:34 Y:99 P:67 SP:FB
CD4B  D0 1C     BNE  A:99 X:34 Y:99 P:67 SP:FB
CD4D  A0 00     LDY  A:99 X:34 Y:99 P:67 SP:FB
CD4F  38        SEC  A:99 X:34 Y:00 P:67 SP:FB
CD50  B8        CLV  A:99 X:34 Y:00 P:67 SP:FB
CD51  98        TYA  A:99 X:34 Y:00 P:27 SP:FB
CD52  D0 15     BNE  A:00 X:34 Y:00 P:27 SP:FB
CD54  90 13     BCC  A:00 X:34 Y:00 P:27 SP:FB
CD56  70 11     BVS  A:00 X:34 Y:00 P:27 SP:FB
CD58  30 0F     BMI  A:00 X:34 Y:00 P:27 SP:FB
CD5A  C9 00     CMP  A:00 X:34 Y:00 P:27 SP:FB
CD5C  D0 0B     BNE  A:00 X:34 Y:00 P:27 SP:FB
CD5E  E0 34     CPX  A:00 X:34 Y:00 P:27 SP:FB
CD60  D0 07     BNE  A:00 X:34 Y:00 P:27 SP:FB
CD62  C0 00     CPY  A:00 X:34 Y:00 P:27 SP:FB
CD64  D0 03     BNE  A:00 X:34 Y:00 P:27 SP:FB
CD66  4C 6D CD  JMP  A:00 X:34 Y:00 P:27 SP:FB
CD6D  EA        NOP  A:00 X:34 Y:00 P:27 SP:FB
CD6E  A9 85     LDA  A:00 X:34 Y:00 P:27 SP:FB
CD70  A2 34     LDX  A:85 X:34 Y:00 P:A5 SP:FB
CD72  A0 99     LDY  A:85 X:34 Y:00 P:25 SP:FB
CD74  18        CLC  A:85 X:34 Y:99 P:A5 SP:FB
CD75  24 01     BIT  A:85 X:34 Y:99 P:A4 SP:FB
CD77  8A        TXA  A:85 X:34 Y:99 P:E4 SP:FB
CD78  F0 2E     BEQ  A:34 X:34 Y:99 P:64 SP:FB
CD7A  B0 2C     BCS  A:34 X:34 Y:99 P:64 SP:FB
CD7C  50 2A     BVC  A:34 X:34 Y:99 P:64 SP:FB
CD7E  30 28     BMI  A:34 X:34 Y:99 P:64 SP:FB
CD80  C9 34     CMP  A:34 X:34 Y:99 P:64 SP:FB
CD82  D0 24     BNE  A:34 X:34 Y:99 P:67 SP:FB
CD84  E0 34     CPX  A:34 X:34 Y:99 P:67 SP:FB
CD86  D0 20     BNE  A:34 X:34 Y:99 P:67 SP:FB
CD88  C0 99     CPY  A:34 X:34 Y:99 P:67 SP:FB
CD8A  D0 1C     BNE  A:34 X:34 Y:99 P:67 SP:FB
CD8C  A2 00     LDX  A:34 X:34 Y:99 P:67 SP:FB
CD8E  38        SEC  A:34 X:00 Y:99 P:67 SP:FB
CD8F  B8        CLV  A:34 X:00 Y:99 P:67 SP:FB
CD90  8A        TXA  A:34 X:00 Y:99 P:27 SP:FB
CD91  D0 15     BNE  A:00 X:00 Y:99 P:27 SP:FB
CD93  90 13     BCC  A:00 X:00 Y:99 P:27 SP:FB
CD95  70 11     BVS  A:00 X:00 Y:99 P:27 SP:FB
CD97  30 0F     BMI  A:00 X:00 Y:99 P:27 SP:FB
CD99  C9 00     CMP  A:00 X:00 Y:99 P:27 SP:FB
CD9B  D0 0B     BNE  A:00 X:00 Y:99 P:27 SP:FB
CD9D  E0 00     CPX  A:00 X:00 Y:99 P:27 SP:FB
CD9F  D0 07     BNE  A:00 X:00 Y:99 P:27 SP:FB
CDA1  C0 99     CPY  A:00 X:00 Y:99 P:27 SP:FB
CDA3  D0 03     BNE  A:00 X:00 Y:99 P:27 SP:FB
CDA5  4C AC CD  JMP  A:00 X:00 Y:99 P:27 SP:FB
CDAC  EA        NOP  A:00 X:00 Y:99 P:27 SP:FB
CDAD  BA        TSX  A:00 X:00 Y:99 P:27 SP:FB
CDAE  8E FF 07  STX  A:00 X:FB Y:99 P:A5 SP:FB
CDB1  A0 33     LDY  A:00 X:FB Y:99 P:A5 SP:FB
CDB3  A2 69     LDX  A:00 X:FB Y:33 P:25 SP:FB
CDB5  A9 84     LDA  A:00 X:69 Y:33 P:25 SP:FB
CDB7  18        CLC  A:84 X:69 Y:33 P:A5 SP:FB
CDB8  24 01     BIT  A:84 X:69 Y:33 P:A4 SP:FB
CDBA  9A        TXS  A:84 X:69 Y:33 P:E4 SP:FB
CDBB  F0 32     BEQ  A:84 X:69 Y:33 P:E4 SP:69
CDBD  10 30     BPL  A:84 X:69 Y:33 P:E4 SP:69
CDBF  B0 2E     BCS  A:84 X:69 Y:33 P:E4 SP:69
CDC1  50 2C     BVC  A:84 X:69 Y:33 P:E4 SP:69
CDC3  C9 84     CMP  A:84 X:69 Y:33 P:E4 SP:69
CDC5  D0 28     BNE  A:84 X:69 Y:33 P:67 SP:69
CDC7  E0 69     CPX  A:84 X:69 Y:33 P:67 SP:69
CDC9  D0 24     BNE  A:84 X:69 Y:33 P:67 SP:69
CDCB  C0 33     CPY  A:84 X:69 Y:33 P:67 SP:69
CDCD  D0 20     BNE  A:84 X:69 Y:33 P:67 SP:69
CDCF  A0 01     LDY  A:84 X:69 Y:33 P:67 SP:69
CDD1  A9 04     LDA  A:84 X:69 Y:01 P:65 SP:69
CDD3  38        SEC  A:04 X:69 Y:01 P:65 SP:69
CDD4  B8        CLV  A:04 X:69 Y:01 P:65 SP:69
CDD5  A2 00     LDX  A:04 X:69 Y:01 P:25 SP:69
CDD7  BA        TSX  A:04 X:00 Y:01 P:27 SP:69
CDD8  F0 15     BEQ  A:04 X:69 Y:01 P:25 SP:69
CDDA  30 13     BMI  A:04 X:69 Y:01 P:25 SP:69
CDDC  90 11     BCC  A:04 X:69 Y:01 P:25 SP:69
CDDE  70 0F     BVS  A:04 X:69 Y:01 P:25 SP:69
CDE0  E0 69     CPX  A:04 X:69 Y:01 P:25 SP:69
CDE2  D0 0B     BNE  A:04 X:69 Y:01 P:27 SP:69
CDE4  C9 04     CMP  A:04 X:69 Y:01 P:27 SP:69
CDE6  D0 07     BNE  A:04 X:69 Y:01 P:27 SP:69
CDE8  C0 01     CPY  A:04 X:69 Y:01 P:27 SP:69
CDEA  D0 03     BNE  A:04 X:69 Y:01 P:27 SP:69
CDEC  4C F3 CD  JMP  A:04 X:69 Y:01 P:27 SP:69
CDF3  AE FF 07  LDX  A:04 X:69 Y:01 P:27 SP:69
CDF6  9A        TXS  A:04 X:FB Y:01 P:A5 SP:69
CDF7  60        RTS  A:04 X:FB Y:01 P:A5 SP:FB
C609  20 F8 CD  JSR  A:04 X:FB Y:01 P:A5 SP:FD
CDF8  A9 FF     LDA  A:04 X:FB Y:01 P:A5 SP:FB
CDFA  85 01     STA  A:FF X:FB Y:01 P:A5 SP:FB
CDFC  BA        TSX  A:FF X:FB Y:01 P:A5 SP:FB
CDFD  8E FF 07  STX  A:FF X:FB Y:01 P:A5 SP:FB
CE00  EA        NOP  A:FF X:FB Y:01 P:A5 SP:FB
CE01  A2 80     LDX  A:FF X:FB Y:01 P:A5 SP:FB
CE03  9A        TXS  A:FF X:80 Y:01 P:A5 SP:FB
CE04  A9 33     LDA  A:FF X:80 Y:01 P:A5 SP:80
CE06  48        PHA  A:33 X:80 Y:01 P:25 SP:80
CE07  A9 69     LDA  A:33 X:80 Y:01 P:25 SP:7F
CE09  48        PHA  A:69 X:80 Y:01 P:25 SP:7F
CE0A  BA        TSX  A:69 X:80 Y:01 P:25 SP:7E
CE0B  E0 7E     CPX  A:69 X:7E Y:01 P:25 SP:7E
CE0D  D0 20     BNE  A:69 X:7E Y:01 P:27 SP:7E
CE0F  68        PLA  A:69 X:7E Y:01 P:27 SP:7E
CE10  C9 69     CMP  A:69 X:7E Y:01 P:25 SP:7F
CE12  D0 1B     BNE  A:69 X:7E Y:01 P:27 SP:7F
CE14  68        PLA  A:69 X:7E Y:01 P:27 SP:7F
CE15  C9 33     CMP  A:33 X:7E Y:01 P:25 SP:80
CE17  D0 16     BNE  A:33 X:7E Y:01 P:27 SP:80
CE19  BA        TSX  A:33 X:7E Y:01 P:27 SP:80
CE1A  E0 80     CPX  A:33 X:80 Y:01 P:A5 SP:80
CE1C  D0 11     BNE  A:33 X:80 Y:01 P:27 SP:80
CE1E  AD 80 01  LDA  A:33 X:80 Y:01 P:27 SP:80
CE21  C9 33     CMP  A:33 X:80 Y:01 P:25 SP:80
CE23  D0 0A     BNE  A:33 X:80 Y:01 P:27 SP:80
CE25  AD 7F 01  LDA  A:33 X:80 Y:01 P:27 SP:80
CE28  C9 69     CMP  A:69 X:80 Y:01 P:25 SP:80
CE2A  D0 03     BNE  A:69 X:80 Y:01 P:27 SP:80
CE2C  4C 33 CE  JMP  A:69 X:80 Y:01 P:27 SP:80
CE33  EA        NOP  A:69 X:80 Y:01 P:27 SP:80
CE34  A2 80     LDX  A:69 X:80 Y:01 P:27 SP:80
CE36  9A        TXS  A:69 X:80 Y:01 P:A5 SP:80
CE37  20 3D CE  JSR  A:69 X:80 Y:01 P:A5 SP:80
CE3D  BA        TSX  A:69 X:80 Y:01 P:A5 SP:7E
CE3E  E0 7E     CPX  A:69 X:7E Y:01 P:25 SP:7E
CE40  D0 19     BNE  A:69 X:7E Y:01 P:27 SP:7E
CE42  68        PLA  A:69 X:7E Y:01 P:27 SP:7E
CE43  68        PLA  A:39 X:7E Y:01 P:25 SP:7F
CE44  BA        TSX  A:CE X:7E Y:01 P:A5 SP:80
CE45  E0 80     CPX  A:CE X:80 Y:01 P:A5 SP:80
CE47  D0 12     BNE  A:CE X:80 Y:01 P:27 SP:80
CE49  A9 00     LDA  A:CE X:80 Y:01 P:27 SP:80
CE4B  20 4E CE  JSR  A:00 X:80 Y:01 P:27 SP:80
CE4E  68        PLA  A:00 X:80 Y:01 P:27 SP:7E
CE4F  C9 4D     CMP  A:4D X:80 Y:01 P:25 SP:7F
CE51  D0 08     BNE  A:4D X:80 Y:01 P:27 SP:7F
CE53  68        PLA  A:4D X:80 Y:01 P:27 SP:7F
CE54  C9 CE     CMP  A:CE X:80 Y:01 P:A5 SP:80
CE56  D0 03     BNE  A:CE X:80 Y:01 P:27 SP:80
CE58  4C 5F CE  JMP  A:CE X:80 Y:01 P:27 SP:80
CE5F  EA        NOP  A:CE X:80 Y:01 P:27 SP:80
CE60  A9 CE     LDA  A:CE X:80 Y:01 P:27 SP:80
CE62  48        PHA  A:CE X:80 Y:01 P:A5 SP:80
CE63  A9 66     LDA  A:CE X:80 Y:01 P:A5 SP:7F
CE65  48        PHA  A:66 X:80 Y:01 P:25 SP:7F
CE66  60        RTS  A:66 X:80 Y:01 P:25 SP:7E
CE67  A2 77     LDX  A:66 X:80 Y:01 P:25 SP:80
CE69  A0 69     LDY  A:66 X:77 Y:01 P:25 SP:80
CE6B  18        CLC  A:66 X:77 Y:69 P:25 SP:80
CE6C  24 01     BIT  A:66 X:77 Y:69 P:24 SP:80
CE6E  A9 83     LDA  A:66 X:77 Y:69 P:E4 SP:80
CE70  20 66 CE  JSR  A:83 X:77 Y:69 P:E4 SP:80
CE66  60        RTS  A:83 X:77 Y:69 P:E4 SP:7E
CE73  F0 24     BEQ  A:83 X:77 Y:69 P:E4 SP:80
CE75  10 22     BPL  A:83 X:77 Y:69 P:E4 SP:80
CE77  B0 20     BCS  A:83 X:77 Y:69 P:E4 SP:80
CE79  50 1E     BVC  A:83 X:77 Y:69 P:E4 SP:80
CE7B  C9 83     CMP  A:83 X:77 Y:69 P:E4 SP:80
CE7D  D0 1A     BNE  A:83 X:77 Y:69 P:67 SP:80
CE7F  C0 69     CPY  A:83 X:77 Y:69 P:67 SP:80
CE81  D0 16     BNE  A:83 X:77 Y:69 P:67 SP:80
CE83  E0 77     CPX  A:83 X:77 Y:69 P:67 SP:80
CE85  D0 12     BNE  A:83 X:77 Y:69 P:67 SP:80
CE87  38        SEC  A:83 X:77 Y:69 P:67 SP:80
CE88  B8        CLV  A:83 X:77 Y:69 P:67 SP:80
CE89  A9 00     LDA  A:83 X:77 Y:69 P:27 SP:80
CE8B  20 66 CE  JSR  A:00 X:77 Y:69 P:27 SP:80
CE66  60        RTS  A:00 X:77 Y:69 P:27 SP:7E
CE8E  D0 09     BNE  A:00 X:77 Y:69 P:27 SP:80
CE90  30 07     BMI  A:00 X:77 Y:69 P:27 SP:80
CE92  90 05     BCC  A:00 X:77 Y:69 P:27 SP:80
CE94  70 03     BVS  A:00 X:77 Y:69 P:27 SP:80
CE96  4C 9D CE  JMP  A:00 X:77 Y:69 P:27 SP:80
CE9D  EA        NOP  A:00 X:77 Y:69 P:27 SP:80
CE9E  A9 CE     LDA  A:00 X:77 Y:69 P:27 SP:80
CEA0  48        PHA  A:CE X:77 Y:69 P:A5 SP:80
CEA1  A9 AE     LDA  A:CE X:77 Y:69 P:A5 SP:7F
CEA3  48        PHA  A:AE X:77 Y:69 P:A5 SP:7F
CEA4  A9 65     LDA  A:AE X:77 Y:69 P:A5 SP:7E
CEA6  48        PHA  A:65 X:77 Y:69 P:25 SP:7E
CEA7  A9 55     LDA  A:65 X:77 Y:69 P:25 SP:7D
CEA9  A0 88     LDY  A:55 X:77 Y:69 P:25 SP:7D
CEAB  A2 99     LDX  A:55 X:77 Y:88 P:A5 SP:7D
CEAD  40        RTI  A:55 X:99 Y:88 P:A5 SP:7D
CEAE  30 35     BMI  A:55 X:99 Y:88 P:65 SP:80
CEB0  50 33     BVC  A:55 X:99 Y:88 P:65 SP:80
CEB2  F0 31     BEQ  A:55 X:99 Y:88 P:65 SP:80
CEB4  90 2F     BCC  A:55 X:99 Y:88 P:65 SP:80
CEB6  C9 55     CMP  A:55 X:99 Y:88 P:65 SP:80
CEB8  D0 2B     BNE  A:55 X:99 Y:88 P:67 SP:80
CEBA  C0 88     CPY  A:55 X:99 Y:88 P:67 SP:80
CEBC  D0 27     BNE  A:55 X:99 Y:88 P:67 SP:80
CEBE  E0 99     CPX  A:55 X:99 Y:88 P:67 SP:80
CEC0  D0 23     BNE  A:55 X:99 Y:88 P:67 SP:80
CEC2  A9 CE     LDA  A:55 X:99 Y:88 P:67 SP:80
CEC4  48        PHA  A:CE X:99 Y:88 P:E5 SP:80
CEC5  A9 CE     LDA  A:CE X:99 Y:88 P:E5 SP:7F
CEC7  48        PHA  A:CE X:99 Y:88 P:E5 SP:7F
CEC8  A9 87     LDA  A:CE X:99 Y:88 P:E5 SP:7E
CECA  48        PHA  A:87 X:99 Y:88 P:E5 SP:7E
CECB  A9 55     LDA  A:87 X:99 Y:88 P:E5 SP:7D
CECD  40        RTI  A:55 X:99 Y:88 P:65 SP:7D
CECE  10 15     BPL  A:55 X:99 Y:88 P:A7 SP:80
CED0  70 13     BVS  A:55 X:99 Y:88 P:A7 SP:80
CED2  D0 11     BNE  A:55 X:99 Y:88 P:A7 SP:80
CED4  90 0F     BCC  A:55 X:99 Y:88 P:A7 SP:80
CED6  C9 55     CMP  A:55 X:99 Y:88 P:A7 SP:80
CED8  D0 0B     BNE  A:55 X:99 Y:88 P:27 SP:80
CEDA  C0 88     CPY  A:55 X:99 Y:88 P:27 SP:80
CEDC  D0 07     BNE  A:55 X:99 Y:88 P:27 SP:80
CEDE  E0 99     CPX  A:55 X:99 Y:88 P:27 SP:80
CEE0  D0 03     BNE  A:55 X:99 Y:88 P:27 SP:80
CEE2  4C E9 CE  JMP  A:55 X:99 Y:88 P:27 SP:80
CEE9  AE FF 07  LDX  A:55 X:99 Y:88 P:27 SP:80
CEEC  9A        TXS  A:55 X:FB Y:88 P:A5 SP:80
CEED  60        RTS  A:55 X:FB Y:88 P:A5 SP:FB
C60C  20 EE CE  JSR  A:55 X:FB Y:88 P:A5 SP:FD
CEEE  A2 55     LDX  A:55 X:FB Y:88 P:A5 SP:FB
CEF0  A0 69     LDY  A:55 X:55 Y:88 P:25 SP:FB
CEF2  A9 FF     LDA  A:55 X:55 Y:69 P:25 SP:FB
CEF4  85 01     STA  A:FF X:55 Y:69 P:A5 SP:FB
CEF6  EA        NOP  A:FF X:55 Y:69 P:A5 SP:FB
CEF7  24 01     BIT  A:FF X:55 Y:69 P:A5 SP:FB
CEF9  38        SEC  A:FF X:55 Y:69 P:E5 SP:FB
CEFA  A9 01     LDA  A:FF X:55 Y:69 P:E5 SP:FB
CEFC  4A        LSR  A:01 X:55 Y:69 P:65 SP:FB
CEFD  90 1D     BCC  A:00 X:55 Y:69 P:67 SP:FB
CEFF  D0 1B     BNE  A:00 X:55 Y:69 P:67 SP:FB
CF01  30 19     BMI  A:00 X:55 Y:69 P:67 SP:FB
CF03  50 17     BVC  A:00 X:55 Y:69 P:67 SP:FB
CF05  C9 00     CMP  A:00 X:55 Y:69 P:67 SP:FB
CF07  D0 13     BNE  A:00 X:55 Y:69 P:67 SP:FB
CF09  B8        CLV  A:00 X:55 Y:69 P:67 SP:FB
CF0A  A9 AA     LDA  A:00 X:55 Y:69 P:27 SP:FB
CF0C  4A        LSR  A:AA X:55 Y:69 P:A5 SP:FB
CF0D  B0 0D     BCS  A:55 X:55 Y:69 P:24 SP:FB
CF0F  F0 0B     BEQ  A:55 X:55 Y:69 P:24 SP:FB
CF11  30 09     BMI  A:55 X:55 Y:69 P:24 SP:FB
CF13  70 07     BVS  A:55 X:55 Y:69 P:24 SP:FB
CF15  C9 55     CMP  A:55 X:55 Y:69 P:24 SP:FB
CF17  D0 03     BNE  A:55 X:55 Y:69 P:27 SP:FB
CF19  4C 20 CF  JMP  A:55 X:55 Y:69 P:27 SP:FB
CF20  EA        NOP  A:55 X:55 Y:69 P:27 SP:FB
CF21  24 01     BIT  A:55 X:55 Y:69 P:27 SP:FB
CF23  38        SEC  A:55 X:55 Y:69 P:E5 SP:FB
CF24  A9 80     LDA  A:55 X:55 Y:69 P:E5 SP:FB
CF26  0A        ASL  A:80 X:55 Y:69 P:E5 SP:FB
CF27  90 1E     BCC  A:00 X:55 Y:69 P:67 SP:FB
CF29  D0 1C     BNE  A:00 X:55 Y:69 P:67 SP:FB
CF2B  30 1A     BMI  A:00 X:55 Y:69 P:67 SP:FB
CF2D  50 18     BVC  A:00 X:55 Y:69 P:67 SP:FB
CF2F  C9 00     CMP  A:00 X:55 Y:69 P:67 SP:FB
CF31  D0 14     BNE  A:00 X:55 Y:69 P:67 SP:FB
CF33  B8        CLV  A:00 X:55 Y:69 P:67 SP:FB
CF34  38        SEC  A:00 X:55 Y:69 P:27 SP:FB
CF35  A9 55     LDA  A:00 X:55 Y:69 P:27 SP:FB
CF37  0A        ASL  A:55 X:55 Y:69 P:25 SP:FB
CF38  B0 0D     BCS  A:AA X:55 Y:69 P:A4 SP:FB
CF3A  F0 0B     BEQ  A:AA X:55 Y:69 P:A4 SP:FB
CF3C  10 09     BPL  A:AA X:55 Y:69 P:A4 SP:FB
CF3E  70 07     BVS  A:AA X:55 Y:69 P:A4 SP:FB
CF40  C9 AA     CMP  A:AA X:55 Y:69 P:A4 SP:FB
CF42  D0 03     BNE  A:AA X:55 Y:69 P:27 SP:FB
CF44  4C 4B CF  JMP  A:AA X:55 Y:69 P:27 SP:FB
CF4B  EA        NOP  A:AA X:55 Y:69 P:27 SP:FB
CF4C  24 01     BIT  A:AA X:55 Y:69 P:27 SP:FB
CF4E  38        SEC  A:AA X:55 Y:69 P:E5 SP:FB
CF4F  A9 01     LDA  A:AA X:55 Y:69 P:E5 SP:FB
CF51  6A        ROR  A:01 X:55 Y:69 P:65 SP:FB
CF52  90 1E     BCC  A:80 X:55 Y:69 P:E5 SP:FB
CF54  F0 1C     BEQ  A:80 X:55 Y:69 P:E5 SP:FB
CF56  10 1A     BPL  A:80 X:55 Y:69 P:E5 SP:FB
CF58  50 18     BVC  A:80 X:55 Y:69 P:E5 SP:FB
CF5A  C9 80     CMP  A:80 X:55 Y:69 P:E5 SP:FB
CF5C  D0 14     BNE  A:80 X:55 Y:69 P:67 SP:FB
CF5E  B8        CLV  A:80 X:55 Y:69 P:67 SP:FB
CF5F  18        CLC  A:80 X:55 Y:69 P:27 SP:FB
CF60  A9 55     LDA  A:80 X:55 Y:69 P:26 SP:FB
CF62  6A        ROR  A:55 X:55 Y:69 P:24 SP:FB
CF63  90 0D     BCC  A:2A X:55 Y:69 P:25 SP:FB
CF65  F0 0B     BEQ  A:2A X:55 Y:69 P:25 SP:FB
CF67  30 09     BMI  A:2A X:55 Y:69 P:25 SP:FB
CF69  70 07     BVS  A:2A X:55 Y:69 P:25 SP:FB
CF6B  C9 2A     CMP  A:2A X:55 Y:69 P:25 SP:FB
CF6D  D0 03     BNE  A:2A X:55 Y:69 P:27 SP:FB
CF6F  4C 76 CF  JMP  A:2A X:55 Y:69 P:27 SP:FB
CF76  EA        NOP  A:2A X:55 Y:69 P:27 SP:FB
CF77  24 01     BIT  A:2A X:55 Y:69 P:27 SP:FB
CF79  38        SEC  A:2A X:55 Y:69 P:E5 SP:FB
CF7A  A9 80     LDA  A:2A X:55 Y:69 P:E5 SP:FB
CF7C  2A        ROL  A:80 X:55 Y:69 P:E5 SP:FB
CF7D  90 1E     BCC  A:01 X:55 Y:69 P:65 SP:FB
CF7F  F0 1C     BEQ  A:01 X:55 Y:69 P:65 SP:FB
CF81  30 1A     BMI  A:01 X:55 Y:69 P:65 SP:FB
CF83  50 18     BVC  A:01 X:55 Y:69 P:65 SP:FB
CF85  C9 01     CMP  A:01 X:55 Y:69 P:65 SP:FB
CF87  D0 14     BNE  A:01 X:55 Y:69 P:67 SP:FB
CF89  B8        CLV  A:01 X:55 Y:69 P:67 SP:FB
CF8A  18        CLC  A:01 X:55 Y:69 P:27 SP:FB
CF8B  A9 55     LDA  A:01 X:55 Y:69 P:26 SP:FB
CF8D  2A        ROL  A:55 X:55 Y:69 P:24 SP:FB
CF8E  B0 0D     BCS  A:AA X:55 Y:69 P:A4 SP:FB
CF90  F0 0B     BEQ  A:AA X:55 Y:69 P:A4 SP:FB
CF92  10 09     BPL  A:AA X:55 Y:69 P:A4 SP:FB
CF94  70 07     BVS  A:AA X:55 Y:69 P:A4 SP:FB
CF96  C9 AA     CMP  A:AA X:55 Y:69 P:A4 SP:FB
CF98  D0 03     BNE  A:AA X:55 Y:69 P:27 SP:FB
CF9A  4C A1 CF  JMP  A:AA X:55 Y:69 P:27 SP:FB
CFA1  60        RTS  A:AA X:55 Y:69 P:27 SP:FB
C60F  20 A2 CF  JSR  A:AA X:55 Y:69 P:27 SP:FD
CFA2  A5 00     LDA  A:AA X:55 Y:69 P:27 SP:FB
CFA4  8D FF 07  STA  A:00 X:55 Y:69 P:27 SP:FB
CFA7  A9 00     LDA  A:00 X:55 Y:69 P:27 SP:FB
CFA9  85 80     STA  A:00 X:55 Y:69 P:27 SP:FB
CFAB  A9 02     LDA  A:00 X:55 Y:69 P:27 SP:FB
CFAD  85 81     STA  A:02 X:55 Y:69 P:25 SP:FB
CFAF  A9 FF     LDA  A:02 X:55 Y:69 P:25 SP:FB
CFB1  85 01     STA  A:FF X:55 Y:69 P:A5 SP:FB
CFB3  A9 00     LDA  A:FF X:55 Y:69 P:A5 SP:FB
CFB5  85 82     STA  A:00 X:55 Y:69 P:27 SP:FB
CFB7  A9 03     LDA  A:00 X:55 Y:69 P:27 SP:FB
CFB9  85 83     STA  A:03 X:55 Y:69 P:25 SP:FB
CFBB  85 84     STA  A:03 X:55 Y:69 P:25 SP:FB
CFBD  A9 00     LDA  A:03 X:55 Y:69 P:25 SP:FB
CFBF  85 FF     STA  A:00 X:55 Y:69 P:27 SP:FB
CFC1  A9 04     LDA  A:00 X:55 Y:69 P:27 SP:FB
CFC3  85 00     STA  A:04 X:55 Y:69 P:25 SP:FB
CFC5  A9 5A     LDA  A:04 X:55 Y:69 P:25 SP:FB
CFC7  8D 00 02  STA  A:5A X:55 Y:69 P:25 SP:FB
CFCA  A9 5B     LDA  A:5A X:55 Y:69 P:25 SP:FB
CFCC  8D 00 03  STA  A:5B X:55 Y:69 P:25 SP:FB
CFCF  A9 5C     LDA  A:5B X:55 Y:69 P:25 SP:FB
CFD1  8D 03 03  STA  A:5C X:55 Y:69 P:25 SP:FB
CFD4  A9 5D     LDA  A:5C X:55 Y:69 P:25 SP:FB
CFD6  8D 00 04  STA  A:5D X:55 Y:69 P:25 SP:FB
CFD9  A2 00     LDX  A:5D X:55 Y:69 P:25 SP:FB
CFDB  A1 80     LDA  A:5D X:00 Y:69 P:27 SP:FB
CFDD  C9 5A     CMP  A:5A X:00 Y:69 P:25 SP:FB
CFDF  D0 1F     BNE  A:5A X:00 Y:69 P:27 SP:FB
CFE1  E8        INX  A:5A X:00 Y:69 P:27 SP:FB
CFE2  E8        INX  A:5A X:01 Y:69 P:25 SP:FB
CFE3  A1 80     LDA  A:5A X:02 Y:69 P:25 SP:FB
CFE5  C9 5B     CMP  A:5B X:02 Y:69 P:25 SP:FB
CFE7  D0 17     BNE  A:5B X:02 Y:69 P:27 SP:FB
CFE9  E8        INX  A:5B X:02 Y:69 P:27 SP:FB
CFEA  A1 80     LDA  A:5B X:03 Y:69 P:25 SP:FB
CFEC  C9 5C     CMP  A:5C X:03 Y:69 P:25 SP:FB
CFEE  D0 10     BNE  A:5C X:03 Y:69 P:27 SP:FB
CFF0  A2 00     LDX  A:5C X:03 Y:69 P:27 SP:FB
CFF2  A1 FF     LDA  A:5C X:00 Y:69 P:27 SP:FB
CFF4  C9 5D     CMP  A:5D X:00 Y:69 P:25 SP:FB
CFF6  D0 08     BNE  A:5D X:00 Y:69 P:27 SP:FB
CFF8  A2 81     LDX  A:5D X:00 Y:69 P:27 SP:FB
CFFA  A1 FF     LDA  A:5D X:81 Y:69 P:A5 SP:FB
CFFC  C9 5A     CMP  A:5A X:81 Y:69 P:25 SP:FB
CFFE  F0 05     BEQ  A:5A X:81 Y:69 P:27 SP:FB
D005  A9 AA     LDA  A:5A X:81 Y:69 P:27 SP:FB
D007  A2 00     LDX  A:AA X:81 Y:69 P:A5 SP:FB
D009  81 80     STA  A:AA X:00 Y:69 P:27 SP:FB
D00B  E8        INX  A:AA X:00 Y:69 P:27 SP:FB
D00C  E8        INX  A:AA X:01 Y:69 P:25 SP:FB
D00D  A9 AB     LDA  A:AA X:02 Y:69 P:25 SP:FB
D00F  81 80     STA  A:AB X:02 Y:69 P:A5 SP:FB
D011  E8        INX  A:AB X:02 Y:69 P:A5 SP:FB
D012  A9 AC     LDA  A:AB X:03 Y:69 P:25 SP:FB
D014  81 80     STA  A:AC X:03 Y:69 P:A5 SP:FB
D016  A2 00     LDX  A:AC X:03 Y:69 P:A5 SP:FB
D018  A9 AD     LDA  A:AC X:00 Y:69 P:27 SP:FB
D01A  81 FF     STA  A:AD X:00 Y:69 P:A5 SP:FB
D01C  AD 00 02  LDA  A:AD X:00 Y:69 P:A5 SP:FB
D01F  C9 AA     CMP  A:AA X:00 Y:69 P:A5 SP:FB
D021  D0 15     BNE  A:AA X:00 Y:69 P:27 SP:FB
D023  AD 00 03  LDA  A:AA X:00 Y:69 P:27 SP:FB
D026  C9 AB     CMP  A:AB X:00 Y:69 P:A5 SP:FB
D028  D0 0E     BNE  A:AB X:00 Y:69 P:27 SP:FB
D02A  AD 03 03  LDA  A:AB X:00 Y:69 P:27 SP:FB
D02D  C9 AC     CMP  A:AC X:00 Y:69 P:A5 SP:FB
D02F  D0 07     BNE  A:AC X:00 Y:69 P:27 SP:FB
D031  AD 00 04  LDA  A:AC X:00 Y:69 P:27 SP:FB
D034  C9 AD     CMP  A:AD X:00 Y:69 P:A5 SP:FB
D036  F0 05     BEQ  A:AD X:00 Y:69 P:27 SP:FB
D03D  AD FF 07  LDA  A:AD X:00 Y:69 P:27 SP:FB
D040  85 00     STA  A:00 X:00 Y:69 P:27 SP:FB
D042  A9 00     LDA  A:00 X:00 Y:69 P:27 SP:FB
D044  8D 00 03  STA  A:00 X:00 Y:69 P:27 SP:FB
D047  A9 AA     LDA  A:00 X:00 Y:69 P:27 SP:FB
D049  8D 00 02  STA  A:AA X:00 Y:69 P:A5 SP:FB
D04C  A2 00     LDX  A:AA X:00 Y:69 P:A5 SP:FB
D04E  A0 5A     LDY  A:AA X:00 Y:69 P:27 SP:FB
D050  20 B6 F7  JSR  A:AA X:00 Y:5A P:25 SP:FB
F7B6  18        CLC  A:AA X:00 Y:5A P:25 SP:F9
F7B7  A9 FF     LDA  A:AA X:00 Y:5A P:24 SP:F9
F7B9  85 01     STA  A:FF X:00 Y:5A P:A4 SP:F9
F7BB  24 01     BIT  A:FF X:00 Y:5A P:A4 SP:F9
F7BD  A9 55     LDA  A:FF X:00 Y:5A P:E4 SP:F9
F7BF  60        RTS  A:55 X:00 Y:5A P:64 SP:F9
D053  01 80     ORA  A:55 X:00 Y:5A P:64 SP:FB
D055  20 C0 F7  JSR  A:FF X:00 Y:5A P:E4 SP:FB
F7C0  B0 09     BCS  A:FF X:00 Y:5A P:E4 SP:F9
F7C2  10 07     BPL  A:FF X:00 Y:5A P:E4 SP:F9
F7C4  C9 FF     CMP  A:FF X:00 Y:5A P:E4 SP:F9
F7C6  D0 03     BNE  A:FF X:00 Y:5A P:67 SP:F9
F7C8  50 01     BVC  A:FF X:00 Y:5A P:67 SP:F9
F7CA  60        RTS  A:FF X:00 Y:5A P:67 SP:F9
D058  C8        INY  A:FF X:00 Y:5A P:67 SP:FB
D059  20 CE F7  JSR  A:FF X:00 Y:5B P:65 SP:FB
F7CE  38        SEC  A:FF X:00 Y:5B P:65 SP:F9
F7CF  B8        CLV  A:FF X:00 Y:5B P:65 SP:F9
F7D0  A9 00     LDA  A:FF X:00 Y:5B P:25 SP:F9
F7D2  60        RTS  A:00 X:00 Y:5B P:27 SP:F9
D05C  01 82     ORA  A:00 X:00 Y:5B P:27 SP:FB
D05E  20 D3 F7  JSR  A:00 X:00 Y:5B P:27 SP:FB
F7D3  D0 07     BNE  A:00 X:00 Y:5B P:27 SP:F9
F7D5  70 05     BVS  A:00 X:00 Y:5B P:27 SP:F9
F7D7  90 03     BCC  A:00 X:00 Y:5B P:27 SP:F9
F7D9  30 01     BMI  A:00 X:00 Y:5B P:27 SP:F9
F7DB  60        RTS  A:00 X:00 Y:5B P:27 SP:F9
D061  C8        INY  A:00 X:00 Y:5B P:27 SP:FB
D062  20 DF F7  JSR  A:00 X:00 Y:5C P:25 SP:FB
F7DF  18        CLC  A:00 X:00 Y:5C P:25 SP:F9
F7E0  24 01     BIT  A:00 X:00 Y:5C P:24 SP:F9
F7E2  A9 55     LDA  A:00 X:00 Y:5C P:E6 SP:F9
F7E4  60        RTS  A:55 X:00 Y:5C P:64 SP:F9
D065  21 80     AND  A:55 X:00 Y:5C P:64 SP:FB
D067  20 E5 F7  JSR  A:00 X:00 Y:5C P:66 SP:FB
F7E5  D0 07     BNE  A:00 X:00 Y:5C P:66 SP:F9
F7E7  50 05     BVC  A:00 X:00 Y:5C P:66 SP:F9
F7E9  B0 03     BCS  A:00 X:00 Y:5C P:66 SP:F9
F7EB  30 01     BMI  A:00 X:00 Y:5C P:66 SP:F9
F7ED  60        RTS  A:00 X:00 Y:5C P:66 SP:F9
D06A  C8        INY  A:00 X:00 Y:5C P:66 SP:FB
D06B  A9 EF     LDA  A:00 X:00 Y:5D P:64 SP:FB
D06D  8D 00 03  STA  A:EF X:00 Y:5D P:E4 SP:FB
D070  20 F1 F7  JSR  A:EF X:00 Y:5D P:E4 SP:FB
F7F1  38        SEC  A:EF X:00 Y:5D P:E4 SP:F9
F7F2  B8        CLV  A:EF X:00 Y:5D P:E5 SP:F9
F7F3  A9 F8     LDA  A:EF X:00 Y:5D P:A5 SP:F9
F7F5  60        RTS  A:F8 X:00 Y:5D P:A5 SP:F9
D073  21 82     AND  A:F8 X:00 Y:5D P:A5 SP:FB
D075  20 F6 F7  JSR  A:E8 X:00 Y:5D P:A5 SP:FB
F7F6  90 09     BCC  A:E8 X:00 Y:5D P:A5 SP:F9
F7F8  10 07     BPL  A:E8 X:00 Y:5D P:A5 SP:F9
F7FA  C9 E8     CMP  A:E8 X:00 Y:5D P:A5 SP:F9
F7FC  D0 03     BNE  A:E8 X:00 Y:5D P:27 SP:F9
F7FE  70 01     BVS  A:E8 X:00 Y:5D P:27 SP:F9
F800  60        RTS  A:E8 X:00 Y:5D P:27 SP:F9
D078  C8        INY  A:E8 X:00 Y:5D P:27 SP:FB
D079  20 04 F8  JSR  A:E8 X:00 Y:5E P:25 SP:FB
F804  18        CLC  A:E8 X:00 Y:5E P:25 SP:F9
F805  24 01     BIT  A:E8 X:00 Y:5E P:24 SP:F9
F807  A9 5F     LDA  A:E8 X:00 Y:5E P:E4 SP:F9
F809  60        RTS  A:5F X:00 Y:5E P:64 SP:F9
D07C  41 80     EOR  A:5F X:00 Y:5E P:64 SP:FB
D07E  20 0A F8  JSR  A:F5 X:00 Y:5E P:E4 SP:FB
F80A  B0 09     BCS  A:F5 X:00 Y:5E P:E4 SP:F9
F80C  10 07     BPL  A:F5 X:00 Y:5E P:E4 SP:F9
F80E  C9 F5     CMP  A:F5 X:00 Y:5E P:E4 SP:F9
F810  D0 03     BNE  A:F5 X:00 Y:5E P:67 SP:F9
F812  50 01     BVC  A:F5 X:00 Y:5E P:67 SP:F9
F814  60        RTS  A:F5 X:00 Y:5E P:67 SP:F9
D081  C8        INY  A:F5 X:00 Y:5E P:67 SP:FB
D082  A9 70     LDA  A:F5 X:00 Y:5F P:65 SP:FB
D084  8D 00 03  STA  A:70 X:00 Y:5F P:65 SP:FB
D087  20 18 F8  JSR  A:70 X:00 Y:5F P:65 SP:FB
F818  38        SEC  A:70 X:00 Y:5F P:65 SP:F9
F819  B8        CLV  A:70 X:00 Y:5F P:65 SP:F9
F81A  A9 70     LDA  A:70 X:00 Y:5F P:25 SP:F9
F81C  60        RTS  A:70 X:00 Y:5F P:25 SP:F9
D08A  41 82     EOR  A:70 X:00 Y:5F P:25 SP:FB
D08C  20 1D F8  JSR  A:00 X:00 Y:5F P:27 SP:FB
F81D  D0 07     BNE  A:00 X:00 Y:5F P:27 SP:F9
F81F  70 05     BVS  A:00 X:00 Y:5F P:27 SP:F9
F821  90 03     BCC  A:00 X:00 Y:5F P:27 SP:F9
F823  30 01     BMI  A:00 X:00 Y:5F P:27 SP:F9
F825  60        RTS  A:00 X:00 Y:5F P:27 SP:F9
D08F  C8        INY  A:00 X:00 Y:5F P:27 SP:FB
D090  A9 69     LDA  A:00 X:00 Y:60 P:25 SP:FB
D092  8D 00 02  STA  A:69 X:00 Y:60 P:25 SP:FB
D095  20 29 F8  JSR  A:69 X:00 Y:60 P:25 SP:FB
F829  18        CLC  A:69 X:00 Y:60 P:25 SP:F9
F82A  24 01     BIT  A:69 X:00 Y:60 P:24 SP:F9
F82C  A9 00     LDA  A:69 X:00 Y:60 P:E4 SP:F9
F82E  60        RTS  A:00 X:00 Y:60 P:66 SP:F9
D098  61 80     ADC  A:00 X:00 Y:60 P:66 SP:FB
D09A  20 2F F8  JSR  A:69 X:00 Y:60 P:24 SP:FB
F82F  30 09     BMI  A:69 X:00 Y:60 P:24 SP:F9
F831  B0 07     BCS  A:69 X:00 Y:60 P:24 SP:F9
F833  C9 69     CMP  A:69 X:00 Y:60 P:24 SP:F9
F835  D0 03     BNE  A:69 X:00 Y:60 P:27 SP:F9
F837  70 01     BVS  A:69 X:00 Y:60 P:27 SP:F9
F839  60        RTS  A:69 X:00 Y:60 P:27 SP:F9
D09D  C8        INY  A:69 X:00 Y:60 P:27 SP:FB
D09E  20 3D F8  JSR  A:69 X:00 Y:61 P:25 SP:FB
F83D  38        SEC  A:69 X:00 Y:61 P:25 SP:F9
F83E  24 01     BIT  A:69 X:00 Y:61 P:25 SP:F9
F840  A9 00     LDA  A:69 X:00 Y:61 P:E5 SP:F9
F842  60        RTS  A:00 X:00 Y:61 P:67 SP:F9
D0A1  61 80     ADC  A:00 X:00 Y:61 P:67 SP:FB
D0A3  20 43 F8  JSR  A:6A X:00 Y:61 P:24 SP:FB
F843  30 09     BMI  A:6A X:00 Y:61 P:24 SP:F9
F845  B0 07     BCS  A:6A X:00 Y:61 P:24 SP:F9
F847  C9 6A     CMP  A:6A X:00 Y:61 P:24 SP:F9
F849  D0 03     BNE  A:6A X:00 Y:61 P:27 SP:F9
F84B  70 01     BVS  A:6A X:00 Y:61 P:27 SP:F9
F84D  60        RTS  A:6A X:00 Y:61 P:27 SP:F9
D0A6  C8        INY  A:6A X:00 Y:61 P:27 SP:FB
D0A7  A9 7F     LDA  A:6A X:00 Y:62 P:25 SP:FB
D0A9  8D 00 02  STA  A:7F X:00 Y:62 P:25 SP:FB
D0AC  20 51 F8  JSR  A:7F X:00 Y:62 P:25 SP:FB
F851  38        SEC  A:7F X:00 Y:62 P:25 SP:F9
F852  B8        CLV  A:7F X:00 Y:62 P:25 SP:F9
F853  A9 7F     LDA  A:7F X:00 Y:62 P:25 SP:F9
F855  60        RTS  A:7F X:00 Y:62 P:25 SP:F9
D0AF  61 80     ADC  A:7F X:00 Y:62 P:25 SP:FB
D0B1  20 56 F8  JSR  A:FF X:00 Y:62 P:E4 SP:FB
F856  10 09     BPL  A:FF X:00 Y:62 P:E4 SP:F9
F858  B0 07     BCS  A:FF X:00 Y:62 P:E4 SP:F9
F85A  C9 FF     CMP  A:FF X:00 Y:62 P:E4 SP:F9
F85C  D0 03     BNE  A:FF X:00 Y:62 P:67 SP:F9
F85E  50 01     BVC  A:FF X:00 Y:62 P:67 SP:F9
F860  60        RTS  A:FF X:00 Y:62 P:67 SP:F9
D0B4  C8        INY  A:FF X:00 Y:62 P:67 SP:FB
D0B5  A9 80     LDA  A:FF X:00 Y:63 P:65 SP:FB
D0B7  8D 00 02  STA  A:80 X:00 Y:63 P:E5 SP:FB
D0BA  20 64 F8  JSR  A:80 X:00 Y:63 P:E5 SP:FB
F864  18        CLC  A:80 X:00 Y:63 P:E5 SP:F9
F865  24 01     BIT  A:80 X:00 Y:63 P:E4 SP:F9
F867  A9 7F     LDA  A:80 X:00 Y:63 P:E4 SP:F9
F869  60        RTS  A:7F X:00 Y:63 P:64 SP:F9
D0BD  61 80     ADC  A:7F X:00 Y:63 P:64 SP:FB
D0BF  20 6A F8  JSR  A:FF X:00 Y:63 P:A4 SP:FB
F86A  10 09     BPL  A:FF X:00 Y:63 P:A4 SP:F9
F86C  B0 07     BCS  A:FF X:00 Y:63 P:A4 SP:F9
F86E  C9 FF     CMP  A:FF X:00 Y:63 P:A4 SP:F9
F870  D0 03     BNE  A:FF X:00 Y:63 P:27 SP:F9
F872  70 01     BVS  A:FF X:00 Y:63 P:27 SP:F9
F874  60        RTS  A:FF X:00 Y:63 P:27 SP:F9
D0C2  C8        INY  A:FF X:00 Y:63 P:27 SP:FB
D0C3  20 78 F8  JSR  A:FF X:00 Y:64 P:25 SP:FB
F878  38        SEC  A:FF X:00 Y:64 P:25 SP:F9
F879  B8        CLV  A:FF X:00 Y:64 P:25 SP:F9
F87A  A9 7F     LDA  A:FF X:00 Y:64 P:25 SP:F9
F87C  60        RTS  A:7F X:00 Y:64 P:25 SP:F9
D0C6  61 80     ADC  A:7F X:00 Y:64 P:25 SP:FB
D0C8  20 7D F8  JSR  A:00 X:00 Y:64 P:27 SP:FB
F87D  D0 07     BNE  A:00 X:00 Y:64 P:27 SP:F9
F87F  30 05     BMI  A:00 X:00 Y:64 P:27 SP:F9
F881  70 03     BVS  A:00 X:00 Y:64 P:27 SP:F9
F883  90 01     BCC  A:00 X:00 Y:64 P:27 SP:F9
F885  60        RTS  A:00 X:00 Y:64 P:27 SP:F9
D0CB  C8        INY  A:00 X:00 Y:64 P:27 SP:FB
D0CC  A9 40     LDA  A:00 X:00 Y:65 P:25 SP:FB
D0CE  8D 00 02  STA  A:40 X:00 Y:65 P:25 SP:FB
D0D1  20 89 F8  JSR  A:40 X:00 Y:65 P:25 SP:FB
F889  24 01     BIT  A:40 X:00 Y:65 P:25 SP:F9
F88B  A9 40     LDA  A:40 X:00 Y:65 P:E5 SP:F9
F88D  60        RTS  A:40 X:00 Y:65 P:65 SP:F9
D0D4  C1 80     CMP  A:40 X:00 Y:65 P:65 SP:FB
D0D6  20 8E F8  JSR  A:40 X:00 Y:65 P:67 SP:FB
F88E  30 07     BMI  A:40 X:00 Y:65 P:67 SP:F9
F890  90 05     BCC  A:40 X:00 Y:65 P:67 SP:F9
F892  D0 03     BNE  A:40 X:00 Y:65 P:67 SP:F9
F894  50 01     BVC  A:40 X:00 Y:65 P:67 SP:F9
F896  60        RTS  A:40 X:00 Y:65 P:67 SP:F9
D0D9  C8        INY  A:40 X:00 Y:65 P:67 SP:FB
D0DA  48        PHA  A:40 X:00 Y:66 P:65 SP:FB
D0DB  A9 3F     LDA  A:40 X:00 Y:66 P:65 SP:FA
D0DD  8D 00 02  STA  A:3F X:00 Y:66 P:65 SP:FA
D0E0  68        PLA  A:3F X:00 Y:66 P:65 SP:FA
D0E1  20 9A F8  JSR  A:40 X:00 Y:66 P:65 SP:FB
F89A  B8        CLV  A:40 X:00 Y:66 P:65 SP:F9
F89B  60        RTS  A:40 X:00 Y:66 P:25 SP:F9
D0E4  C1 80     CMP  A:40 X:00 Y:66 P:25 SP:FB
D0E6  20 9C F8  JSR  A:40 X:00 Y:66 P:25 SP:FB
F89C  F0 07     BEQ  A:40 X:00 Y:66 P:25 SP:F9
F89E  30 05     BMI  A:40 X:00 Y:66 P:25 SP:F9
F8A0  90 03     BCC  A:40 X:00 Y:66 P:25 SP:F9
F8A2  70 01     BVS  A:40 X:00 Y:66 P:25 SP:F9
F8A4  60        RTS  A:40 X:00 Y:66 P:25 SP:F9
D0E9  C8        INY  A:40 X:00 Y:66 P:25 SP:FB
D0EA  48        PHA  A:40 X:00 Y:67 P:25 SP:FB
D0EB  A9 41     LDA  A:40 X:00 Y:67 P:25 SP:FA
D0ED  8D 00 02  STA  A:41 X:00 Y:67 P:25 SP:FA
D0F0  68        PLA  A:41 X:00 Y:67 P:25 SP:FA
D0F1  C1 80     CMP  A:40 X:00 Y:67 P:25 SP:FB
D0F3  20 A8 F8  JSR  A:40 X:00 Y:67 P:A4 SP:FB
F8A8  F0 05     BEQ  A:40 X:00 Y:67 P:A4 SP:F9
F8AA  10 03     BPL  A:40 X:00 Y:67 P:A4 SP:F9
F8AC  10 01     BPL  A:40 X:00 Y:67 P:A4 SP:F9
F8AE  60        RTS  A:40 X:00 Y:67 P:A4 SP:F9
D0F6  C8        INY  A:40 X:00 Y:67 P:A4 SP:FB
D0F7  48        PHA  A:40 X:00 Y:68 P:24 SP:FB
D0F8  A9 00     LDA  A:40 X:00 Y:68 P:24 SP:FA
D0FA  8D 00 02  STA  A:00 X:00 Y:68 P:26 SP:FA
D0FD  68        PLA  A:00 X:00 Y:68 P:26 SP:FA
D0FE  20 B2 F8  JSR  A:40 X:00 Y:68 P:24 SP:FB
F8B2  A9 80     LDA  A:40 X:00 Y:68 P:24 SP:F9
F8B4  60        RTS  A:80 X:00 Y:68 P:A4 SP:F9
D101  C1 80     CMP  A:80 X:00 Y:68 P:A4 SP:FB
D103  20 B5 F8  JSR  A:80 X:00 Y:68 P:A5 SP:FB
F8B5  F0 05     BEQ  A:80 X:00 Y:68 P:A5 SP:F9
F8B7  10 03     BPL  A:80 X:00 Y:68 P:A5 SP:F9
F8B9  90 01     BCC  A:80 X:00 Y:68 P:A5 SP:F9
F8BB  60        RTS  A:80 X:00 Y:68 P:A5 SP:F9
D106  C8        INY  A:80 X:00 Y:68 P:A5 SP:FB
D107  48        PHA  A:80 X:00 Y:69 P:25 SP:FB
D108  A9 80     LDA  A:80 X:00 Y:69 P:25 SP:FA
D10A  8D 00 02  STA  A:80 X:00 Y:69 P:A5 SP:FA
D10D  68        PLA  A:80 X:00 Y:69 P:A5 SP:FA
D10E  C1 80     CMP  A:80 X:00 Y:69 P:A5 SP:FB
D110  20 BF F8  JSR  A:80 X:00 Y:69 P:27 SP:FB
F8BF  D0 05     BNE  A:80 X:00 Y:69 P:27 SP:F9
F8C1  30 03     BMI  A:80 X:00 Y:69 P:27 SP:F9
F8C3  90 01     BCC  A:80 X:00 Y:69 P:27 SP:F9
F8C5  60        RTS  A:80 X:00 Y:69 P:27 SP:F9
D113  C8        INY  A:80 X:00 Y:69 P:27 SP:FB
D114  48        PHA  A:80 X:00 Y:6A P:25 SP:FB
D115  A9 81     LDA  A:80 X:00 Y:6A P:25 SP:FA
D117  8D 00 02  STA  A:81 X:00 Y:6A P:A5 SP:FA
D11A  68        PLA  A:81 X:00 Y:6A P:A5 SP:FA
D11B  C1 80     CMP  A:80 X:00 Y:6A P:A5 SP:FB
D11D  20 C9 F8  JSR  A:80 X:00 Y:6A P:A4 SP:FB
F8C9  B0 05     BCS  A:80 X:00 Y:6A P:A4 SP:F9
F8CB  F0 03     BEQ  A:80 X:00 Y:6A P:A4 SP:F9
F8CD  10 01     BPL  A:80 X:00 Y:6A P:A4 SP:F9
F8CF  60        RTS  A:80 X:00 Y:6A P:A4 SP:F9
D120  C8        INY  A:80 X:00 Y:6A P:A4 SP:FB
D121  48        PHA  A:80 X:00 Y:6B P:24 SP:FB
D122  A9 7F     LDA  A:80 X:00 Y:6B P:24 SP:FA
D124  8D 00 02  STA  A:7F X:00 Y:6B P:24 SP:FA
D127  68        PLA  A:7F X:00 Y:6B P:24 SP:FA
D128  C1 80     CMP  A:80 X:00 Y:6B P:A4 SP:FB
D12A  20 D3 F8  JSR  A:80 X:00 Y:6B P:25 SP:FB
F8D3  90 05     BCC  A:80 X:00 Y:6B P:25 SP:F9
F8D5  F0 03     BEQ  A:80 X:00 Y:6B P:25 SP:F9
F8D7  30 01     BMI  A:80 X:00 Y:6B P:25 SP:F9
F8D9  60        RTS  A:80 X:00 Y:6B P:25 SP:F9
D12D  C8        INY  A:80 X:00 Y:6B P:25 SP:FB
D12E  A9 40     LDA  A:80 X:00 Y:6C P:25 SP:FB
D130  8D 00 02  STA  A:40 X:00 Y:6C P:25 SP:FB
D133  20 31 F9  JSR  A:40 X:00 Y:6C P:25 SP:FB
F931  24 01     BIT  A:40 X:00 Y:6C P:25 SP:F9
F933  A9 40     LDA  A:40 X:00 Y:6C P:E5 SP:F9
F935  38        SEC  A:40 X:00 Y:6C P:65 SP:F9
F936  60        RTS  A:40 X:00 Y:6C P:65 SP:F9
D136  E1 80     SBC  A:40 X:00 Y:6C P:65 SP:FB
D138  20 37 F9  JSR  A:00 X:00 Y:6C P:27 SP:FB
F937  30 0B     BMI  A:00 X:00 Y:6C P:27 SP:F9
F939  90 09     BCC  A:00 X:00 Y:6C P:27 SP:F9
F93B  D0 07     BNE  A:00 X:00 Y:6C P:27 SP:F9
F93D  70 05     BVS  A:00 X:00 Y:6C P:27 SP:F9
F93F  C9 00     CMP  A:00 X:00 Y:6C P:27 SP:F9
F941  D0 01     BNE  A:00 X:00 Y:6C P:27 SP:F9
F943  60        RTS  A:00 X:00 Y:6C P:27 SP:F9
D13B  C8        INY  A:00 X:00 Y:6C P:27 SP:FB
D13C  A9 3F     LDA  A:00 X:00 Y:6D P:25 SP:FB
D13E  8D 00 02  STA  A:3F X:00 Y:6D P:25 SP:FB
D141  20 47 F9  JSR  A:3F X:00 Y:6D P:25 SP:FB
F947  B8        CLV  A:3F X:00 Y:6D P:25 SP:F9
F948  38        SEC  A:3F X:00 Y:6D P:25 SP:F9
F949  A9 40     LDA  A:3F X:00 Y:6D P:25 SP:F9
F94B  60        RTS  A:40 X:00 Y:6D P:25 SP:F9
D144  E1 80     SBC  A:40 X:00 Y:6D P:25 SP:FB
D146  20 4C F9  JSR  A:01 X:00 Y:6D P:25 SP:FB
F94C  F0 0B     BEQ  A:01 X:00 Y:6D P:25 SP:F9
F94E  30 09     BMI  A:01 X:00 Y:6D P:25 SP:F9
F950  90 07     BCC  A:01 X:00 Y:6D P:25 SP:F9
F952  70 05     BVS  A:01 X:00 Y:6D P:25 SP:F9
F954  C9 01     CMP  A:01 X:00 Y:6D P:25 SP:F9
F956  D0 01     BNE  A:01 X:00 Y:6D P:27 SP:F9
F958  60        RTS  A:01 X:00 Y:6D P:27 SP:F9
D149  C8        INY  A:01 X:00 Y:6D P:27 SP:FB
D14A  A9 41     LDA  A:01 X:00 Y:6E P:25 SP:FB
D14C  8D 00 02  STA  A:41 X:00 Y:6E P:25 SP:FB
D14F  20 5C F9  JSR  A:41 X:00 Y:6E P:25 SP:FB
F95C  A9 40     LDA  A:41 X:00 Y:6E P:25 SP:F9
F95E  38        SEC  A:40 X:00 Y:6E P:25 SP:F9
F95F  24 01     BIT  A:40 X:00 Y:6E P:25 SP:F9
F961  60        RTS  A:40 X:00 Y:6E P:E5 SP:F9
D152  E1 80     SBC  A:40 X:00 Y:6E P:E5 SP:FB
D154  20 62 F9  JSR  A:FF X:00 Y:6E P:A4 SP:FB
F962  B0 0B     BCS  A:FF X:00 Y:6E P:A4 SP:F9
F964  F0 09     BEQ  A:FF X:00 Y:6E P:A4 SP:F9
F966  10 07     BPL  A:FF X:00 Y:6E P:A4 SP:F9
F968  70 05     BVS  A:FF X:00 Y:6E P:A4 SP:F9
F96A  C9 FF     CMP  A:FF X:00 Y:6E P:A4 SP:F9
F96C  D0 01     BNE  A:FF X:00 Y:6E P:27 SP:F9
F96E  60        RTS  A:FF X:00 Y:6E P:27 SP:F9
D157  C8        INY  A:FF X:00 Y:6E P:27 SP:FB
D158  A9 00     LDA  A:FF X:00 Y:6F P:25 SP:FB
D15A  8D 00 02  STA  A:00 X:00 Y:6F P:27 SP:FB
D15D  20 72 F9  JSR  A:00 X:00 Y:6F P:27 SP:FB
F972  18        CLC  A:00 X:00 Y:6F P:27 SP:F9
F973  A9 80     LDA  A:00 X:00 Y:6F P:26 SP:F9
F975  60        RTS  A:80 X:00 Y:6F P:A4 SP:F9
D160  E1 80     SBC  A:80 X:00 Y:6F P:A4 SP:FB
D162  20 76 F9  JSR  A:7F X:00 Y:6F P:65 SP:FB
F976  90 05     BCC  A:7F X:00 Y:6F P:65 SP:F9
F978  C9 7F     CMP  A:7F X:00 Y:6F P:65 SP:F9
F97A  D0 01     BNE  A:7F X:00 Y:6F P:67 SP:F9
F97C  60        RTS  A:7F X:00 Y:6F P:67 SP:F9
D165  C8        INY  A:7F X:00 Y:6F P:67 SP:FB
D166  A9 7F     LDA  A:7F X:00 Y:70 P:65 SP:FB
D168  8D 00 02  STA  A:7F X:00 Y:70 P:65 SP:FB
D16B  20 80 F9  JSR  A:7F X:00 Y:70 P:65 SP:FB
F980  38        SEC  A:7F X:00 Y:70 P:65 SP:F9
F981  A9 81     LDA  A:7F X:00 Y:70 P:65 SP:F9
F983  60        RTS  A:81 X:00 Y:70 P:E5 SP:F9
D16E  E1 80     SBC  A:81 X:00 Y:70 P:E5 SP:FB
D170  20 84 F9  JSR  A:02 X:00 Y:70 P:65 SP:FB
F984  50 07     BVC  A:02 X:00 Y:70 P:65 SP:F9
F986  90 05     BCC  A:02 X:00 Y:70 P:65 SP:F9
F988  C9 02     CMP  A:02 X:00 Y:70 P:65 SP:F9
F98A  D0 01     BNE  A:02 X:00 Y:70 P:67 SP:F9
F98C  60        RTS  A:02 X:00 Y:70 P:67 SP:F9
D173  60        RTS  A:02 X:00 Y:70 P:67 SP:FB
C612  20 74 D1  JSR  A:02 X:00 Y:70 P:67 SP:FD
D174  A9 55     LDA  A:02 X:00 Y:70 P:67 SP:FB
D176  85 78     STA  A:55 X:00 Y:70 P:65 SP:FB
D178  A9 FF     LDA  A:55 X:00 Y:70 P:65 SP:FB
D17A  85 01     STA  A:FF X:00 Y:70 P:E5 SP:FB
D17C  24 01     BIT  A:FF X:00 Y:70 P:E5 SP:FB
D17E  A0 11     LDY  A:FF X:00 Y:70 P:E5 SP:FB
D180  A2 23     LDX  A:FF X:00 Y:11 P:65 SP:FB
D182  A9 00     LDA  A:FF X:23 Y:11 P:65 SP:FB
D184  A5 78     LDA  A:00 X:23 Y:11 P:67 SP:FB
D186  F0 10     BEQ  A:55 X:23 Y:11 P:65 SP:FB
D188  30 0E     BMI  A:55 X:23 Y:11 P:65 SP:FB
D18A  C9 55     CMP  A:55 X:23 Y:11 P:65 SP:FB
D18C  D0 0A     BNE  A:55 X:23 Y:11 P:67 SP:FB
D18E  C0 11     CPY  A:55 X:23 Y:11 P:67 SP:FB
D190  D0 06     BNE  A:55 X:23 Y:11 P:67 SP:FB
D192  E0 23     CPX  A:55 X:23 Y:11 P:67 SP:FB
D194  50 02     BVC  A:55 X:23 Y:11 P:67 SP:FB
D196  F0 04     BEQ  A:55 X:23 Y:11 P:67 SP:FB
D19C  A9 46     LDA  A:55 X:23 Y:11 P:67 SP:FB
D19E  24 01     BIT  A:46 X:23 Y:11 P:65 SP:FB
D1A0  85 78     STA  A:46 X:23 Y:11 P:E5 SP:FB
D1A2  F0 0A     BEQ  A:46 X:23 Y:11 P:E5 SP:FB
D1A4  10 08     BPL  A:46 X:23 Y:11 P:E5 SP:FB
D1A6  50 06     BVC  A:46 X:23 Y:11 P:E5 SP:FB
D1A8  A5 78     LDA  A:46 X:23 Y:11 P:E5 SP:FB
D1AA  C9 46     CMP  A:46 X:23 Y:11 P:65 SP:FB
D1AC  F0 04     BEQ  A:46 X:23 Y:11 P:67 SP:FB
D1B2  A9 55     LDA  A:46 X:23 Y:11 P:67 SP:FB
D1B4  85 78     STA  A:55 X:23 Y:11 P:65 SP:FB
D1B6  24 01     BIT  A:55 X:23 Y:11 P:65 SP:FB
D1B8  A9 11     LDA  A:55 X:23 Y:11 P:E5 SP:FB
D1BA  A2 23     LDX  A:11 X:23 Y:11 P:65 SP:FB
D1BC  A0 00     LDY  A:11 X:23 Y:11 P:65 SP:FB
D1BE  A4 78     LDY  A:11 X:23 Y:00 P:67 SP:FB
D1C0  F0 10     BEQ  A:11 X:23 Y:55 P:65 SP:FB
D1C2  30 0E     BMI  A:11 X:23 Y:55 P:65 SP:FB
D1C4  C0 55     CPY  A:11 X:23 Y:55 P:65 SP:FB
D1C6  D0 0A     BNE  A:11 X:23 Y:55 P:67 SP:FB
D1C8  C9 11     CMP  A:11 X:23 Y:55 P:67 SP:FB
D1CA  D0 06     BNE  A:11 X:23 Y:55 P:67 SP:FB
D1CC  E0 23     CPX  A:11 X:23 Y:55 P:67 SP:FB
D1CE  50 02     BVC  A:11 X:23 Y:55 P:67 SP:FB
D1D0  F0 04     BEQ  A:11 X:23 Y:55 P:67 SP:FB
D1D6  A0 46     LDY  A:11 X:23 Y:55 P:67 SP:FB
D1D8  24 01     BIT  A:11 X:23 Y:46 P:65 SP:FB
D1DA  84 78     STY  A:11 X:23 Y:46 P:E5 SP:FB
D1DC  F0 0A     BEQ  A:11 X:23 Y:46 P:E5 SP:FB
D1DE  10 08     BPL  A:11 X:23 Y:46 P:E5 SP:FB
D1E0  50 06     BVC  A:11 X:23 Y:46 P:E5 SP:FB
D1E2  A4 78     LDY  A:11 X:23 Y:46 P:E5 SP:FB
D1E4  C0 46     CPY  A:11 X:23 Y:46 P:65 SP:FB
D1E6  F0 04     BEQ  A:11 X:23 Y:46 P:67 SP:FB
D1EC  24 01     BIT  A:11 X:23 Y:46 P:67 SP:FB
D1EE  A9 55     LDA  A:11 X:23 Y:46 P:E5 SP:FB
D1F0  85 78     STA  A:55 X:23 Y:46 P:65 SP:FB
D1F2  A0 11     LDY  A:55 X:23 Y:46 P:65 SP:FB
D1F4  A9 23     LDA  A:55 X:23 Y:11 P:65 SP:FB
D1F6  A2 00     LDX  A:23 X:23 Y:11 P:65 SP:FB
D1F8  A6 78     LDX  A:23 X:00 Y:11 P:67 SP:FB
D1FA  F0 10     BEQ  A:23 X:55 Y:11 P:65 SP:FB
D1FC  30 0E     BMI  A:23 X:55 Y:11 P:65 SP:FB
D1FE  E0 55     CPX  A:23 X:55 Y:11 P:65 SP:FB
D200  D0 0A     BNE  A:23 X:55 Y:11 P:67 SP:FB
D202  C0 11     CPY  A:23 X:55 Y:11 P:67 SP:FB
D204  D0 06     BNE  A:23 X:55 Y:11 P:67 SP:FB
D206  C9 23     CMP  A:23 X:55 Y:11 P:67 SP:FB
D208  50 02     BVC  A:23 X:55 Y:11 P:67 SP:FB
D20A  F0 04     BEQ  A:23 X:55 Y:11 P:67 SP:FB
D210  A2 46     LDX  A:23 X:55 Y:11 P:67 SP:FB
D212  24 01     BIT  A:23 X:46 Y:11 P:65 SP:FB
D214  86 78     STX  A:23 X:46 Y:11 P:E5 SP:FB
D216  F0 0A     BEQ  A:23 X:46 Y:11 P:E5 SP:FB
D218  10 08     BPL  A:23 X:46 Y:11 P:E5 SP:FB
D21A  50 06     BVC  A:23 X:46 Y:11 P:E5 SP:FB
D21C  A6 78     LDX  A:23 X:46 Y:11 P:E5 SP:FB
D21E  E0 46     CPX  A:23 X:46 Y:11 P:65 SP:FB
D220  F0 04     BEQ  A:23 X:46 Y:11 P:67 SP:FB
D226  A9 C0     LDA  A:23 X:46 Y:11 P:67 SP:FB
D228  85 78     STA  A:C0 X:46 Y:11 P:E5 SP:FB
D22A  A2 33     LDX  A:C0 X:46 Y:11 P:E5 SP:FB
D22C  A0 88     LDY  A:C0 X:33 Y:11 P:65 SP:FB
D22E  A9 05     LDA  A:C0 X:33 Y:88 P:E5 SP:FB
D230  24 78     BIT  A:05 X:33 Y:88 P:65 SP:FB
D232  10 10     BPL  A:05 X:33 Y:88 P:E7 SP:FB
D234  50 0E     BVC  A:05 X:33 Y:88 P:E7 SP:FB
D236  D0 0C     BNE  A:05 X:33 Y:88 P:E7 SP:FB
D238  C9 05     CMP  A:05 X:33 Y:88 P:E7 SP:FB
D23A  D0 08     BNE  A:05 X:33 Y:88 P:67 SP:FB
D23C  E0 33     CPX  A:05 X:33 Y:88 P:67 SP:FB
D23E  D0 04     BNE  A:05 X:33 Y:88 P:67 SP:FB
D240  C0 88     CPY  A:05 X:33 Y:88 P:67 SP:FB
D242  F0 04     BEQ  A:05 X:33 Y:88 P:67 SP:FB
D248  A9 03     LDA  A:05 X:33 Y:88 P:67 SP:FB
D24A  85 78     STA  A:03 X:33 Y:88 P:65 SP:FB
D24C  A9 01     LDA  A:03 X:33 Y:88 P:65 SP:FB
D24E  24 78     BIT  A:01 X:33 Y:88 P:65 SP:FB
D250  30 08     BMI  A:01 X:33 Y:88 P:25 SP:FB
D252  70 06     BVS  A:01 X:33 Y:88 P:25 SP:FB
D254  F0 04     BEQ  A:01 X:33 Y:88 P:25 SP:FB
D256  C9 01     CMP  A:01 X:33 Y:88 P:25 SP:FB
D258  F0 04     BEQ  A:01 X:33 Y:88 P:27 SP:FB
D25E  A0 7E     LDY  A:01 X:33 Y:88 P:27 SP:FB
D260  A9 AA     LDA  A:01 X:33 Y:7E P:25 SP:FB
D262  85 78     STA  A:AA X:33 Y:7E P:A5 SP:FB
D264  20 B6 F7  JSR  A:AA X:33 Y:7E P:A5 SP:FB
F7B6  18        CLC  A:AA X:33 Y:7E P:A5 SP:F9
F7B7  A9 FF     LDA  A:AA X:33 Y:7E P:A4 SP:F9
F7B9  85 01     STA  A:FF X:33 Y:7E P:A4 SP:F9
F7BB  24 01     BIT  A:FF X:33 Y:7E P:A4 SP:F9
F7BD  A9 55     LDA  A:FF X:33 Y:7E P:E4 SP:F9
F7BF  60        RTS  A:55 X:33 Y:7E P:64 SP:F9
D267  05 78     ORA  A:55 X:33 Y:7E P:64 SP:FB
D269  20 C0 F7  JSR  A:FF X:33 Y:7E P:E4 SP:FB
F7C0  B0 09     BCS  A:FF X:33 Y:7E P:E4 SP:F9
F7C2  10 07     BPL  A:FF X:33 Y:7E P:E4 SP:F9
F7C4  C9 FF     CMP  A:FF X:33 Y:7E P:E4 SP:F9
F7C6  D0 03     BNE  A:FF X:33 Y:7E P:67 SP:F9
F7C8  50 01     BVC  A:FF X:33 Y:7E P:67 SP:F9
F7CA  60        RTS  A:FF X:33 Y:7E P:67 SP:F9
D26C  C8        INY  A:FF X:33 Y:7E P:67 SP:FB
D26D  A9 00     LDA  A:FF X:33 Y:7F P:65 SP:FB
D26F  85 78     STA  A:00 X:33 Y:7F P:67 SP:FB
D271  20 CE F7  JSR  A:00 X:33 Y:7F P:67 SP:FB
F7CE  38        SEC  A:00 X:33 Y:7F P:67 SP:F9
F7CF  B8        CLV  A:00 X:33 Y:7F P:67 SP:F9
F7D0  A9 00     LDA  A:00 X:33 Y:7F P:27 SP:F9
F7D2  60        RTS  A:00 X:33 Y:7F P:27 SP:F9
D274  05 78     ORA  A:00 X:33 Y:7F P:27 SP:FB
D276  20 D3 F7  JSR  A:00 X:33 Y:7F P:27 SP:FB
F7D3  D0 07     BNE  A:00 X:33 Y:7F P:27 SP:F9
F7D5  70 05     BVS  A:00 X:33 Y:7F P:27 SP:F9
F7D7  90 03     BCC  A:00 X:33 Y:7F P:27 SP:F9
F7D9  30 01     BMI  A:00 X:33 Y:7F P:27 SP:F9
F7DB  60        RTS  A:00 X:33 Y:7F P:27 SP:F9
D279  C8        INY  A:00 X:33 Y:7F P:27 SP:FB
D27A  A9 AA     LDA  A:00 X:33 Y:80 P:A5 SP:FB
D27C  85 78     STA  A:AA X:33 Y:80 P:A5 SP:FB
D27E  20 DF F7  JSR  A:AA X:33 Y:80 P:A5 SP:FB
F7DF  18        CLC  A:AA X:33 Y:80 P:A5 SP:F9
F7E0  24 01     BIT  A:AA X:33 Y:80 P:A4 SP:F9
F7E2  A9 55     LDA  A:AA X:33 Y:80 P:E4 SP:F9
F7E4  60        RTS  A:55 X:33 Y:80 P:64 SP:F9
D281  25 78     AND  A:55 X:33 Y:80 P:64 SP:FB
D283  20 E5 F7  JSR  A:00 X:33 Y:80 P:66 SP:FB
F7E5  D0 07     BNE  A:00 X:33 Y:80 P:66 SP:F9
F7E7  50 05     BVC  A:00 X:33 Y:80 P:66 SP:F9
F7E9  B0 03     BCS  A:00 X:33 Y:80 P:66 SP:F9
F7EB  30 01     BMI  A:00 X:33 Y:80 P:66 SP:F9
F7ED  60        RTS  A:00 X:33 Y:80 P:66 SP:F9
D286  C8        INY  A:00 X:33 Y:80 P:66 SP:FB
D287  A9 EF     LDA  A:00 X:33 Y:81 P:E4 SP:FB
D289  85 78     STA  A:EF X:33 Y:81 P:E4 SP:FB
D28B  20 F1 F7  JSR  A:EF X:33 Y:81 P:E4 SP:FB
F7F1  38        SEC  A:EF X:33 Y:81 P:E4 SP:F9
F7F2  B8        CLV  A:EF X:33 Y:81 P:E5 SP:F9
F7F3  A9 F8     LDA  A:EF X:33 Y:81 P:A5 SP:F9
F7F5  60        RTS  A:F8 X:33 Y:81 P:A5 SP:F9
D28E  25 78     AND  A:F8 X:33 Y:81 P:A5 SP:FB
D290  20 F6 F7  JSR  A:E8 X:33 Y:81 P:A5 SP:FB
F7F6  90 09     BCC  A:E8 X:33 Y:81 P:A5 SP:F9
F7F8  10 07     BPL  A:E8 X:33 Y:81 P:A5 SP:F9
F7FA  C9 E8     CMP  A:E8 X:33 Y:81 P:A5 SP:F9
F7FC  D0 03     BNE  A:E8 X:33 Y:81 P:27 SP:F9
F7FE  70 01     BVS  A:E8 X:33 Y:81 P:27 SP:F9
F800  60        RTS  A:E8 X:33 Y:81 P:27 SP:F9
D293  C8        INY  A:E8 X:33 Y:81 P:27 SP:FB
D294  A9 AA     LDA  A:E8 X:33 Y:82 P:A5 SP:FB
D296  85 78     STA  A:AA X:33 Y:82 P:A5 SP:FB
D298  20 04 F8  JSR  A:AA X:33 Y:82 P:A5 SP:FB
F804  18        CLC  A:AA X:33 Y:82 P:A5 SP:F9
F805  24 01     BIT  A:AA X:33 Y:82 P:A4 SP:F9
F807  A9 5F     LDA  A:AA X:33 Y:82 P:E4 SP:F9
F809  60        RTS  A:5F X:33 Y:82 P:64 SP:F9
D29B  45 78     EOR  A:5F X:33 Y:82 P:64 SP:FB
D29D  20 0A F8  JSR  A:F5 X:33 Y:82 P:E4 SP:FB
F80A  B0 09     BCS  A:F5 X:33 Y:82 P:E4 SP:F9
F80C  10 07     BPL  A:F5 X:33 Y:82 P:E4 SP:F9
F80E  C9 F5     CMP  A:F5 X:33 Y:82 P:E4 SP:F9
F810  D0 03     BNE  A:F5 X:33 Y:82 P:67 SP:F9
F812  50 01     BVC  A:F5 X:33 Y:82 P:67 SP:F9
F814  60        RTS  A:F5 X:33 Y:82 P:67 SP:F9
D2A0  C8        INY  A:F5 X:33 Y:82 P:67 SP:FB
D2A1  A9 70     LDA  A:F5 X:33 Y:83 P:E5 SP:FB
D2A3  85 78     STA  A:70 X:33 Y:83 P:65 SP:FB
D2A5  20 18 F8  JSR  A:70 X:33 Y:83 P:65 SP:FB
F818  38        SEC  A:70 X:33 Y:83 P:65 SP:F9
F819  B8        CLV  A:70 X:33 Y:83 P:65 SP:F9
F81A  A9 70     LDA  A:70 X:33 Y:83 P:25 SP:F9
F81C  60        RTS  A:70 X:33 Y:83 P:25 SP:F9
D2A8  45 78     EOR  A:70 X:33 Y:83 P:25 SP:FB
D2AA  20 1D F8  JSR  A:00 X:33 Y:83 P:27 SP:FB
F81D  D0 07     BNE  A:00 X:33 Y:83 P:27 SP:F9
F81F  70 05     BVS  A:00 X:33 Y:83 P:27 SP:F9
F821  90 03     BCC  A:00 X:33 Y:83 P:27 SP:F9
F823  30 01     BMI  A:00 X:33 Y:83 P:27 SP:F9
F825  60        RTS  A:00 X:33 Y:83 P:27 SP:F9
D2AD  C8        INY  A:00 X:33 Y:83 P:27 SP:FB
D2AE  A9 69     LDA  A:00 X:33 Y:84 P:A5 SP:FB
D2B0  85 78     STA  A:69 X:33 Y:84 P:25 SP:FB
D2B2  20 29 F8  JSR  A:69 X:33 Y:84 P:25 SP:FB
F829  18        CLC  A:69 X:33 Y:84 P:25 SP:F9
F82A  24 01     BIT  A:69 X:33 Y:84 P:24 SP:F9
F82C  A9 00     LDA  A:69 X:33 Y:84 P:E4 SP:F9
F82E  60        RTS  A:00 X:33 Y:84 P:66 SP:F9
D2B5  65 78     ADC  A:00 X:33 Y:84 P:66 SP:FB
D2B7  20 2F F8  JSR  A:69 X:33 Y:84 P:24 SP:FB
F82F  30 09     BMI  A:69 X:33 Y:84 P:24 SP:F9
F831  B0 07     BCS  A:69 X:33 Y:84 P:24 SP:F9
F833  C9 69     CMP  A:69 X:33 Y:84 P:24 SP:F9
F835  D0 03     BNE  A:69 X:33 Y:84 P:27 SP:F9
F837  70 01     BVS  A:69 X:33 Y:84 P:27 SP:F9
F839  60        RTS  A:69 X:33 Y:84 P:27 SP:F9
D2BA  C8        INY  A:69 X:33 Y:84 P:27 SP:FB
D2BB  20 3D F8  JSR  A:69 X:33 Y:85 P:A5 SP:FB
F83D  38        SEC  A:69 X:33 Y:85 P:A5 SP:F9
F83E  24 01     BIT  A:69 X:33 Y:85 P:A5 SP:F9
F840  A9 00     LDA  A:69 X:33 Y:85 P:E5 SP:F9
F842  60        RTS  A:00 X:33 Y:85 P:67 SP:F9
D2BE  65 78     ADC  A:00 X:33 Y:85 P:67 SP:FB
D2C0  20 43 F8  JSR  A:6A X:33 Y:85 P:24 SP:FB
F843  30 09     BMI  A:6A X:33 Y:85 P:24 SP:F9
F845  B0 07     BCS  A:6A X:33 Y:85 P:24 SP:F9
F847  C9 6A     CMP  A:6A X:33 Y:85 P:24 SP:F9
F849  D0 03     BNE  A:6A X:33 Y:85 P:27 SP:F9
F84B  70 01     BVS  A:6A X:33 Y:85 P:27 SP:F9
F84D  60        RTS  A:6A X:33 Y:85 P:27 SP:F9
D2C3  C8        INY  A:6A X:33 Y:85 P:27 SP:FB
D2C4  A9 7F     LDA  A:6A X:33 Y:86 P:A5 SP:FB
D2C6  85 78     STA  A:7F X:33 Y:86 P:25 SP:FB
D2C8  20 51 F8  JSR  A:7F X:33 Y:86 P:25 SP:FB
F851  38        SEC  A:7F X:33 Y:86 P:25 SP:F9
F852  B8        CLV  A:7F X:33 Y:86 P:25 SP:F9
F853  A9 7F     LDA  A:7F X:33 Y:86 P:25 SP:F9
F855  60        RTS  A:7F X:33 Y:86 P:25 SP:F9
D2CB  65 78     ADC  A:7F X:33 Y:86 P:25 SP:FB
D2CD  20 56 F8  JSR  A:FF X:33 Y:86 P:E4 SP:FB
F856  10 09     BPL  A:FF X:33 Y:86 P:E4 SP:F9
F858  B0 07     BCS  A:FF X:33 Y:86 P:E4 SP:F9
F85A  C9 FF     CMP  A:FF X:33 Y:86 P:E4 SP:F9
F85C  D0 03     BNE  A:FF X:33 Y:86 P:67 SP:F9
F85E  50 01     BVC  A:FF X:33 Y:86 P:67 SP:F9
F860  60        RTS  A:FF X:33 Y:86 P:67 SP:F9
D2D0  C8        INY  A:FF X:33 Y:86 P:67 SP:FB
D2D1  A9 80     LDA  A:FF X:33 Y:87 P:E5 SP:FB
D2D3  85 78     STA  A:80 X:33 Y:87 P:E5 SP:FB
D2D5  20 64 F8  JSR  A:80 X:33 Y:87 P:E5 SP:FB
F864  18        CLC  A:80 X:33 Y:87 P:E5 SP:F9
F865  24 01     BIT  A:80 X:33 Y:87 P:E4 SP:F9
F867  A9 7F     LDA  A:80 X:33 Y:87 P:E4 SP:F9
F869  60        RTS  A:7F X:33 Y:87 P:64 SP:F9
D2D8  65 78     ADC  A:7F X:33 Y:87 P:64 SP:FB
D2DA  20 6A F8  JSR  A:FF X:33 Y:87 P:A4 SP:FB
F86A  10 09     BPL  A:FF X:33 Y:87 P:A4 SP:F9
F86C  B0 07     BCS  A:FF X:33 Y:87 P:A4 SP:F9
F86E  C9 FF     CMP  A:FF X:33 Y:87 P:A4 SP:F9
F870  D0 03     BNE  A:FF X:33 Y:87 P:27 SP:F9
F872  70 01     BVS  A:FF X:33 Y:87 P:27 SP:F9
F874  60        RTS  A:FF X:33 Y:87 P:27 SP:F9
D2DD  C8        INY  A:FF X:33 Y:87 P:27 SP:FB
D2DE  20 78 F8  JSR  A:FF X:33 Y:88 P:A5 SP:FB
F878  38        SEC  A:FF X:33 Y:88 P:A5 SP:F9
F879  B8        CLV  A:FF X:33 Y:88 P:A5 SP:F9
F87A  A9 7F     LDA  A:FF X:33 Y:88 P:A5 SP:F9
F87C  60        RTS  A:7F X:33 Y:88 P:25 SP:F9
D2E1  65 78     ADC  A:7F X:33 Y:88 P:25 SP:FB
D2E3  20 7D F8  JSR  A:00 X:33 Y:88 P:27 SP:FB
F87D  D0 07     BNE  A:00 X:33 Y:88 P:27 SP:F9
F87F  30 05     BMI  A:00 X:33 Y:88 P:27 SP:F9
F881  70 03     BVS  A:00 X:33 Y:88 P:27 SP:F9
F883  90 01     BCC  A:00 X:33 Y:88 P:27 SP:F9
F885  60        RTS  A:00 X:33 Y:88 P:27 SP:F9
D2E6  C8        INY  A:00 X:33 Y:88 P:27 SP:FB
D2E7  A9 40     LDA  A:00 X:33 Y:89 P:A5 SP:FB
D2E9  85 78     STA  A:40 X:33 Y:89 P:25 SP:FB
D2EB  20 89 F8  JSR  A:40 X:33 Y:89 P:25 SP:FB
F889  24 01     BIT  A:40 X:33 Y:89 P:25 SP:F9
F88B  A9 40     LDA  A:40 X:33 Y:89 P:E5 SP:F9
F88D  60        RTS  A:40 X:33 Y:89 P:65 SP:F9
D2EE  C5 78     CMP  A:40 X:33 Y:89 P:65 SP:FB
D2F0  20 8E F8  JSR  A:40 X:33 Y:89 P:67 SP:FB
F88E  30 07     BMI  A:40 X:33 Y:89 P:67 SP:F9
F890  90 05     BCC  A:40 X:33 Y:89 P:67 SP:F9
F892  D0 03     BNE  A:40 X:33 Y:89 P:67 SP:F9
F894  50 01     BVC  A:40 X:33 Y:89 P:67 SP:F9
F896  60        RTS  A:40 X:33 Y:89 P:67 SP:F9
D2F3  C8        INY  A:40 X:33 Y:89 P:67 SP:FB
D2F4  48        PHA  A:40 X:33 Y:8A P:E5 SP:FB
D2F5  A9 3F     LDA  A:40 X:33 Y:8A P:E5 SP:FA
D2F7  85 78     STA  A:3F X:33 Y:8A P:65 SP:FA
D2F9  68        PLA  A:3F X:33 Y:8A P:65 SP:FA
D2FA  20 9A F8  JSR  A:40 X:33 Y:8A P:65 SP:FB
F89A  B8        CLV  A:40 X:33 Y:8A P:65 SP:F9
F89B  60        RTS  A:40 X:33 Y:8A P:25 SP:F9
D2FD  C5 78     CMP  A:40 X:33 Y:8A P:25 SP:FB
D2FF  20 9C F8  JSR  A:40 X:33 Y:8A P:25 SP:FB
F89C  F0 07     BEQ  A:40 X:33 Y:8A P:25 SP:F9
F89E  30 05     BMI  A:40 X:33 Y:8A P:25 SP:F9
F8A0  90 03     BCC  A:40 X:33 Y:8A P:25 SP:F9
F8A2  70 01     BVS  A:40 X:33 Y:8A P:25 SP:F9
F8A4  60        RTS  A:40 X:33 Y:8A P:25 SP:F9
D302  C8        INY  A:40 X:33 Y:8A P:25 SP:FB
D303  48        PHA  A:40 X:33 Y:8B P:A5 SP:FB
D304  A9 41     LDA  A:40 X:33 Y:8B P:A5 SP:FA
D306  85 78     STA  A:41 X:33 Y:8B P:25 SP:FA
D308  68        PLA  A:41 X:33 Y:8B P:25 SP:FA
D309  C5 78     CMP  A:40 X:33 Y:8B P:25 SP:FB
D30B  20 A8 F8  JSR  A:40 X:33 Y:8B P:A4 SP:FB
F8A8  F0 05     BEQ  A:40 X:33 Y:8B P:A4 SP:F9
F8AA  10 03     BPL  A:40 X:33 Y:8B P:A4 SP:F9
F8AC  10 01     BPL  A:40 X:33 Y:8B P:A4 SP:F9
F8AE  60        RTS  A:40 X:33 Y:8B P:A4 SP:F9
D30E  C8        INY  A:40 X:33 Y:8B P:A4 SP:FB
D30F  48        PHA  A:40 X:33 Y:8C P:A4 SP:FB
D310  A9 00     LDA  A:40 X:33 Y:8C P:A4 SP:FA
D312  85 78     STA  A:00 X:33 Y:8C P:26 SP:FA
D314  68        PLA  A:00 X:33 Y:8C P:26 SP:FA
D315  20 B2 F8  JSR  A:40 X:33 Y:8C P:24 SP:FB
F8B2  A9 80     LDA  A:40 X:33 Y:8C P:24 SP:F9
F8B4  60        RTS  A:80 X:33 Y:8C P:A4 SP:F9
D318  C5 78     CMP  A:80 X:33 Y:8C P:A4 SP:FB
D31A  20 B5 F8  JSR  A:80 X:33 Y:8C P:A5 SP:FB
F8B5  F0 05     BEQ  A:80 X:33 Y:8C P:A5 SP:F9
F8B7  10 03     BPL  A:80 X:33 Y:8C P:A5 SP:F9
F8B9  90 01     BCC  A:80 X:33 Y:8C P:A5 SP:F9
F8BB  60        RTS  A:80 X:33 Y:8C P:A5 SP:F9
D31D  C8        INY  A:80 X:33 Y:8C P:A5 SP:FB
D31E  48        PHA  A:80 X:33 Y:8D P:A5 SP:FB
D31F  A9 80     LDA  A:80 X:33 Y:8D P:A5 SP:FA
D321  85 78     STA  A:80 X:33 Y:8D P:A5 SP:FA
D323  68        PLA  A:80 X:33 Y:8D P:A5 SP:FA
D324  C5 78     CMP  A:80 X:33 Y:8D P:A5 SP:FB
D326  20 BF F8  JSR  A:80 X:33 Y:8D P:27 SP:FB
F8BF  D0 05     BNE  A:80 X:33 Y:8D P:27 SP:F9
F8C1  30 03     BMI  A:80 X:33 Y:8D P:27 SP:F9
F8C3  90 01     BCC  A:80 X:33 Y:8D P:27 SP:F9
F8C5  60        RTS  A:80 X:33 Y:8D P:27 SP:F9
D329  C8        INY  A:80 X:33 Y:8D P:27 SP:FB
D32A  48        PHA  A:80 X:33 Y:8E P:A5 SP:FB
D32B  A9 81     LDA  A:80 X:33 Y:8E P:A5 SP:FA
D32D  85 78     STA  A:81 X:33 Y:8E P:A5 SP:FA
D32F  68        PLA  A:81 X:33 Y:8E P:A5 SP:FA
D330  C5 78     CMP  A:80 X:33 Y:8E P:A5 SP:FB
D332  20 C9 F8  JSR  A:80 X:33 Y:8E P:A4 SP:FB
F8C9  B0 05     BCS  A:80 X:33 Y:8E P:A4 SP:F9
F8CB  F0 03     BEQ  A:80 X:33 Y:8E P:A4 SP:F9
F8CD  10 01     BPL  A:80 X:33 Y:8E P:A4 SP:F9
F8CF  60        RTS  A:80 X:33 Y:8E P:A4 SP:F9
D335  C8        INY  A:80 X:33 Y:8E P:A4 SP:FB
D336  48        PHA  A:80 X:33 Y:8F P:A4 SP:FB
D337  A9 7F     LDA  A:80 X:33 Y:8F P:A4 SP:FA
D339  85 78     STA  A:7F X:33 Y:8F P:24 SP:FA
D33B  68        PLA  A:7F X:33 Y:8F P:24 SP:FA
D33C  C5 78     CMP  A:80 X:33 Y:8F P:A4 SP:FB
D33E  20 D3 F8  JSR  A:80 X:33 Y:8F P:25 SP:FB
F8D3  90 05     BCC  A:80 X:33 Y:8F P:25 SP:F9
F8D5  F0 03     BEQ  A:80 X:33 Y:8F P:25 SP:F9
F8D7  30 01     BMI  A:80 X:33 Y:8F P:25 SP:F9
F8D9  60        RTS  A:80 X:33 Y:8F P:25 SP:F9
D341  C8        INY  A:80 X:33 Y:8F P:25 SP:FB
D342  A9 40     LDA  A:80 X:33 Y:90 P:A5 SP:FB
D344  85 78     STA  A:40 X:33 Y:90 P:25 SP:FB
D346  20 31 F9  JSR  A:40 X:33 Y:90 P:25 SP:FB
F931  24 01     BIT  A:40 X:33 Y:90 P:25 SP:F9
F933  A9 40     LDA  A:40 X:33 Y:90 P:E5 SP:F9
F935  38        SEC  A:40 X:33 Y:90 P:65 SP:F9
F936  60        RTS  A:40 X:33 Y:90 P:65 SP:F9
D349  E5 78     SBC  A:40 X:33 Y:90 P:65 SP:FB
D34B  20 37 F9  JSR  A:00 X:33 Y:90 P:27 SP:FB
F937  30 0B     BMI  A:00 X:33 Y:90 P:27 SP:F9
F939  90 09     BCC  A:00 X:33 Y:90 P:27 SP:F9
F93B  D0 07     BNE  A:00 X:33 Y:90 P:27 SP:F9
F93D  70 05     BVS  A:00 X:33 Y:90 P:27 SP:F9
F93F  C9 00     CMP  A:00 X:33 Y:90 P:27 SP:F9
F941  D0 01     BNE  A:00 X:33 Y:90 P:27 SP:F9
F943  60        RTS  A:00 X:33 Y:90 P:27 SP:F9
D34E  C8        INY  A:00 X:33 Y:90 P:27 SP:FB
D34F  A9 3F     LDA  A:00 X:33 Y:91 P:A5 SP:FB
D351  85 78     STA  A:3F X:33 Y:91 P:25 SP:FB
D353  20 47 F9  JSR  A:3F X:33 Y:91 P:25 SP:FB
F947  B8        CLV  A:3F X:33 Y:91 P:25 SP:F9
F948  38        SEC  A:3F X:33 Y:91 P:25 SP:F9
F949  A9 40     LDA  A:3F X:33 Y:91 P:25 SP:F9
F94B  60        RTS  A:40 X:33 Y:91 P:25 SP:F9
D356  E5 78     SBC  A:40 X:33 Y:91 P:25 SP:FB
D358  20 4C F9  JSR  A:01 X:33 Y:91 P:25 SP:FB
F94C  F0 0B     BEQ  A:01 X:33 Y:91 P:25 SP:F9
F94E  30 09     BMI  A:01 X:33 Y:91 P:25 SP:F9
F950  90 07     BCC  A:01 X:33 Y:91 P:25 SP:F9
F952  70 05     BVS  A:01 X:33 Y:91 P:25 SP:F9
F954  C9 01     CMP  A:01 X:33 Y:91 P:25 SP:F9
F956  D0 01     BNE  A:01 X:33 Y:91 P:27 SP:F9
F958  60        RTS  A:01 X:33 Y:91 P:27 SP:F9
D35B  C8        INY  A:01 X:33 Y:91 P:27 SP:FB
D35C  A9 41     LDA  A:01 X:33 Y:92 P:A5 SP:FB
D35E  85 78     STA  A:41 X:33 Y:92 P:25 SP:FB
D360  20 5C F9  JSR  A:41 X:33 Y:92 P:25 SP:FB
F95C  A9 40     LDA  A:41 X:33 Y:92 P:25 SP:F9
F95E  38        SEC  A:40 X:33 Y:92 P:25 SP:F9
F95F  24 01     BIT  A:40 X:33 Y:92 P:25 SP:F9
F961  60        RTS  A:40 X:33 Y:92 P:E5 SP:F9
D363  E5 78     SBC  A:40 X:33 Y:92 P:E5 SP:FB
D365  20 62 F9  JSR  A:FF X:33 Y:92 P:A4 SP:FB
F962  B0 0B     BCS  A:FF X:33 Y:92 P:A4 SP:F9
F964  F0 09     BEQ  A:FF X:33 Y:92 P:A4 SP:F9
F966  10 07     BPL  A:FF X:33 Y:92 P:A4 SP:F9
F968  70 05     BVS  A:FF X:33 Y:92 P:A4 SP:F9
F96A  C9 FF     CMP  A:FF X:33 Y:92 P:A4 SP:F9
F96C  D0 01     BNE  A:FF X:33 Y:92 P:27 SP:F9
F96E  60        RTS  A:FF X:33 Y:92 P:27 SP:F9
D368  C8        INY  A:FF X:33 Y:92 P:27 SP:FB
D369  A9 00     LDA  A:FF X:33 Y:93 P:A5 SP:FB
D36B  85 78     STA  A:00 X:33 Y:93 P:27 SP:FB
D36D  20 72 F9  JSR  A:00 X:33 Y:93 P:27 SP:FB
F972  18        CLC  A:00 X:33 Y:93 P:27 SP:F9
F973  A9 80     LDA  A:00 X:33 Y:93 P:26 SP:F9
F975  60        RTS  A:80 X:33 Y:93 P:A4 SP:F9
D370  E5 78     SBC  A:80 X:33 Y:93 P:A4 SP:FB
D372  20 76 F9  JSR  A:7F X:33 Y:93 P:65 SP:FB
F976  90 05     BCC  A:7F X:33 Y:93 P:65 SP:F9
F978  C9 7F     CMP  A:7F X:33 Y:93 P:65 SP:F9
F97A  D0 01     BNE  A:7F X:33 Y:93 P:67 SP:F9
F97C  60        RTS  A:7F X:33 Y:93 P:67 SP:F9
D375  C8        INY  A:7F X:33 Y:93 P:67 SP:FB
D376  A9 7F     LDA  A:7F X:33 Y:94 P:E5 SP:FB
D378  85 78     STA  A:7F X:33 Y:94 P:65 SP:FB
D37A  20 80 F9  JSR  A:7F X:33 Y:94 P:65 SP:FB
F980  38        SEC  A:7F X:33 Y:94 P:65 SP:F9
F981  A9 81     LDA  A:7F X:33 Y:94 P:65 SP:F9
F983  60        RTS  A:81 X:33 Y:94 P:E5 SP:F9
D37D  E5 78     SBC  A:81 X:33 Y:94 P:E5 SP:FB
D37F  20 84 F9  JSR  A:02 X:33 Y:94 P:65 SP:FB
F984  50 07     BVC  A:02 X:33 Y:94 P:65 SP:F9
F986  90 05     BCC  A:02 X:33 Y:94 P:65 SP:F9
F988  C9 02     CMP  A:02 X:33 Y:94 P:65 SP:F9
F98A  D0 01     BNE  A:02 X:33 Y:94 P:67 SP:F9
F98C  60        RTS  A:02 X:33 Y:94 P:67 SP:F9
D382  C8        INY  A:02 X:33 Y:94 P:67 SP:FB
D383  A9 40     LDA  A:02 X:33 Y:95 P:E5 SP:FB
D385  85 78     STA  A:40 X:33 Y:95 P:65 SP:FB
D387  20 89 F8  JSR  A:40 X:33 Y:95 P:65 SP:FB
F889  24 01     BIT  A:40 X:33 Y:95 P:65 SP:F9
F88B  A9 40     LDA  A:40 X:33 Y:95 P:E5 SP:F9
F88D  60        RTS  A:40 X:33 Y:95 P:65 SP:F9
D38A  AA        TAX  A:40 X:33 Y:95 P:65 SP:FB
D38B  E4 78     CPX  A:40 X:40 Y:95 P:65 SP:FB
D38D  20 8E F8  JSR  A:40 X:40 Y:95 P:67 SP:FB
F88E  30 07     BMI  A:40 X:40 Y:95 P:67 SP:F9
F890  90 05     BCC  A:40 X:40 Y:95 P:67 SP:F9
F892  D0 03     BNE  A:40 X:40 Y:95 P:67 SP:F9
F894  50 01     BVC  A:40 X:40 Y:95 P:67 SP:F9
F896  60        RTS  A:40 X:40 Y:95 P:67 SP:F9
D390  C8        INY  A:40 X:40 Y:95 P:67 SP:FB
D391  A9 3F     LDA  A:40 X:40 Y:96 P:E5 SP:FB
D393  85 78     STA  A:3F X:40 Y:96 P:65 SP:FB
D395  20 9A F8  JSR  A:3F X:40 Y:96 P:65 SP:FB
F89A  B8        CLV  A:3F X:40 Y:96 P:65 SP:F9
F89B  60        RTS  A:3F X:40 Y:96 P:25 SP:F9
D398  E4 78     CPX  A:3F X:40 Y:96 P:25 SP:FB
D39A  20 9C F8  JSR  A:3F X:40 Y:96 P:25 SP:FB
F89C  F0 07     BEQ  A:3F X:40 Y:96 P:25 SP:F9
F89E  30 05     BMI  A:3F X:40 Y:96 P:25 SP:F9
F8A0  90 03     BCC  A:3F X:40 Y:96 P:25 SP:F9
F8A2  70 01     BVS  A:3F X:40 Y:96 P:25 SP:F9
F8A4  60        RTS  A:3F X:40 Y:96 P:25 SP:F9
D39D  C8        INY  A:3F X:40 Y:96 P:25 SP:FB
D39E  A9 41     LDA  A:3F X:40 Y:97 P:A5 SP:FB
D3A0  85 78     STA  A:41 X:40 Y:97 P:25 SP:FB
D3A2  E4 78     CPX  A:41 X:40 Y:97 P:25 SP:FB
D3A4  20 A8 F8  JSR  A:41 X:40 Y:97 P:A4 SP:FB
F8A8  F0 05     BEQ  A:41 X:40 Y:97 P:A4 SP:F9
F8AA  10 03     BPL  A:41 X:40 Y:97 P:A4 SP:F9
F8AC  10 01     BPL  A:41 X:40 Y:97 P:A4 SP:F9
F8AE  60        RTS  A:41 X:40 Y:97 P:A4 SP:F9
D3A7  C8        INY  A:41 X:40 Y:97 P:A4 SP:FB
D3A8  A9 00     LDA  A:41 X:40 Y:98 P:A4 SP:FB
D3AA  85 78     STA  A:00 X:40 Y:98 P:26 SP:FB
D3AC  20 B2 F8  JSR  A:00 X:40 Y:98 P:26 SP:FB
F8B2  A9 80     LDA  A:00 X:40 Y:98 P:26 SP:F9
F8B4  60        RTS  A:80 X:40 Y:98 P:A4 SP:F9
D3AF  AA        TAX  A:80 X:40 Y:98 P:A4 SP:FB
D3B0  E4 78     CPX  A:80 X:80 Y:98 P:A4 SP:FB
D3B2  20 B5 F8  JSR  A:80 X:80 Y:98 P:A5 SP:FB
F8B5  F0 05     BEQ  A:80 X:80 Y:98 P:A5 SP:F9
F8B7  10 03     BPL  A:80 X:80 Y:98 P:A5 SP:F9
F8B9  90 01     BCC  A:80 X:80 Y:98 P:A5 SP:F9
F8BB  60        RTS  A:80 X:80 Y:98 P:A5 SP:F9
D3B5  C8        INY  A:80 X:80 Y:98 P:A5 SP:FB
D3B6  A9 80     LDA  A:80 X:80 Y:99 P:A5 SP:FB
D3B8  85 78     STA  A:80 X:80 Y:99 P:A5 SP:FB
D3BA  E4 78     CPX  A:80 X:80 Y:99 P:A5 SP:FB
D3BC  20 BF F8  JSR  A:80 X:80 Y:99 P:27 SP:FB
F8BF  D0 05     BNE  A:80 X:80 Y:99 P:27 SP:F9
F8C1  30 03     BMI  A:80 X:80 Y:99 P:27 SP:F9
F8C3  90 01     BCC  A:80 X:80 Y:99 P:27 SP:F9
F8C5  60        RTS  A:80 X:80 Y:99 P:27 SP:F9
D3BF  C8        INY  A:80 X:80 Y:99 P:27 SP:FB
D3C0  A9 81     LDA  A:80 X:80 Y:9A P:A5 SP:FB
D3C2  85 78     STA  A:81 X:80 Y:9A P:A5 SP:FB
D3C4  E4 78     CPX  A:81 X:80 Y:9A P:A5 SP:FB
D3C6  20 C9 F8  JSR  A:81 X:80 Y:9A P:A4 SP:FB
F8C9  B0 05     BCS  A:81 X:80 Y:9A P:A4 SP:F9
F8CB  F0 03     BEQ  A:81 X:80 Y:9A P:A4 SP:F9
F8CD  10 01     BPL  A:81 X:80 Y:9A P:A4 SP:F9
F8CF  60        RTS  A:81 X:80 Y:9A P:A4 SP:F9
D3C9  C8        INY  A:81 X:80 Y:9A P:A4 SP:FB
D3CA  A9 7F     LDA  A:81 X:80 Y:9B P:A4 SP:FB
D3CC  85 78     STA  A:7F X:80 Y:9B P:24 SP:FB
D3CE  E4 78     CPX  A:7F X:80 Y:9B P:24 SP:FB
D3D0  20 D3 F8  JSR  A:7F X:80 Y:9B P:25 SP:FB
F8D3  90 05     BCC  A:7F X:80 Y:9B P:25 SP:F9
F8D5  F0 03     BEQ  A:7F X:80 Y:9B P:25 SP:F9
F8D7  30 01     BMI  A:7F X:80 Y:9B P:25 SP:F9
F8D9  60        RTS  A:7F X:80 Y:9B P:25 SP:F9
D3D3  C8        INY  A:7F X:80 Y:9B P:25 SP:FB
D3D4  98        TYA  A:7F X:80 Y:9C P:A5 SP:FB
D3D5  AA        TAX  A:9C X:80 Y:9C P:A5 SP:FB
D3D6  A9 40     LDA  A:9C X:9C Y:9C P:A5 SP:FB
D3D8  85 78     STA  A:40 X:9C Y:9C P:25 SP:FB
D3DA  20 DD F8  JSR  A:40 X:9C Y:9C P:25 SP:FB
F8DD  24 01     BIT  A:40 X:9C Y:9C P:25 SP:F9
F8DF  A0 40     LDY  A:40 X:9C Y:9C P:E5 SP:F9
F8E1  60        RTS  A:40 X:9C Y:40 P:65 SP:F9
D3DD  C4 78     CPY  A:40 X:9C Y:40 P:65 SP:FB
D3DF  20 E2 F8  JSR  A:40 X:9C Y:40 P:67 SP:FB
F8E2  30 07     BMI  A:40 X:9C Y:40 P:67 SP:F9
F8E4  90 05     BCC  A:40 X:9C Y:40 P:67 SP:F9
F8E6  D0 03     BNE  A:40 X:9C Y:40 P:67 SP:F9
F8E8  50 01     BVC  A:40 X:9C Y:40 P:67 SP:F9
F8EA  60        RTS  A:40 X:9C Y:40 P:67 SP:F9
D3E2  E8        INX  A:40 X:9C Y:40 P:67 SP:FB
D3E3  A9 3F     LDA  A:40 X:9D Y:40 P:E5 SP:FB
D3E5  85 78     STA  A:3F X:9D Y:40 P:65 SP:FB
D3E7  20 EE F8  JSR  A:3F X:9D Y:40 P:65 SP:FB
F8EE  B8        CLV  A:3F X:9D Y:40 P:65 SP:F9
F8EF  60        RTS  A:3F X:9D Y:40 P:25 SP:F9
D3EA  C4 78     CPY  A:3F X:9D Y:40 P:25 SP:FB
D3EC  20 F0 F8  JSR  A:3F X:9D Y:40 P:25 SP:FB
F8F0  F0 07     BEQ  A:3F X:9D Y:40 P:25 SP:F9
F8F2  30 05     BMI  A:3F X:9D Y:40 P:25 SP:F9
F8F4  90 03     BCC  A:3F X:9D Y:40 P:25 SP:F9
F8F6  70 01     BVS  A:3F X:9D Y:40 P:25 SP:F9
F8F8  60        RTS  A:3F X:9D Y:40 P:25 SP:F9
D3EF  E8        INX  A:3F X:9D Y:40 P:25 SP:FB
D3F0  A9 41     LDA  A:3F X:9E Y:40 P:A5 SP:FB
D3F2  85 78     STA  A:41 X:9E Y:40 P:25 SP:FB
D3F4  C4 78     CPY  A:41 X:9E Y:40 P:25 SP:FB
D3F6  20 FC F8  JSR  A:41 X:9E Y:40 P:A4 SP:FB
F8FC  F0 05     BEQ  A:41 X:9E Y:40 P:A4 SP:F9
F8FE  10 03     BPL  A:41 X:9E Y:40 P:A4 SP:F9
F900  10 01     BPL  A:41 X:9E Y:40 P:A4 SP:F9
F902  60        RTS  A:41 X:9E Y:40 P:A4 SP:F9
D3F9  E8        INX  A:41 X:9E Y:40 P:A4 SP:FB
D3FA  A9 00     LDA  A:41 X:9F Y:40 P:A4 SP:FB
D3FC  85 78     STA  A:00 X:9F Y:40 P:26 SP:FB
D3FE  20 06 F9  JSR  A:00 X:9F Y:40 P:26 SP:FB
F906  A0 80     LDY  A:00 X:9F Y:40 P:26 SP:F9
F908  60        RTS  A:00 X:9F Y:80 P:A4 SP:F9
D401  C4 78     CPY  A:00 X:9F Y:80 P:A4 SP:FB
D403  20 09 F9  JSR  A:00 X:9F Y:80 P:A5 SP:FB
F909  F0 05     BEQ  A:00 X:9F Y:80 P:A5 SP:F9
F90B  10 03     BPL  A:00 X:9F Y:80 P:A5 SP:F9
F90D  90 01     BCC  A:00 X:9F Y:80 P:A5 SP:F9
F90F  60        RTS  A:00 X:9F Y:80 P:A5 SP:F9
D406  E8        INX  A:00 X:9F Y:80 P:A5 SP:FB
D407  A9 80     LDA  A:00 X:A0 Y:80 P:A5 SP:FB
D409  85 78     STA  A:80 X:A0 Y:80 P:A5 SP:FB
D40B  C4 78     CPY  A:80 X:A0 Y:80 P:A5 SP:FB
D40D  20 13 F9  JSR  A:80 X:A0 Y:80 P:27 SP:FB
F913  D0 05     BNE  A:80 X:A0 Y:80 P:27 SP:F9
F915  30 03     BMI  A:80 X:A0 Y:80 P:27 SP:F9
F917  90 01     BCC  A:80 X:A0 Y:80 P:27 SP:F9
F919  60        RTS  A:80 X:A0 Y:80 P:27 SP:F9
D410  E8        INX  A:80 X:A0 Y:80 P:27 SP:FB
D411  A9 81     LDA  A:80 X:A1 Y:80 P:A5 SP:FB
D413  85 78     STA  A:81 X:A1 Y:80 P:A5 SP:FB
D415  C4 78     CPY  A:81 X:A1 Y:80 P:A5 SP:FB
D417  20 1D F9  JSR  A:81 X:A1 Y:80 P:A4 SP:FB
F91D  B0 05     BCS  A:81 X:A1 Y:80 P:A4 SP:F9
F91F  F0 03     BEQ  A:81 X:A1 Y:80 P:A4 SP:F9
F921  10 01     BPL  A:81 X:A1 Y:80 P:A4 SP:F9
F923  60        RTS  A:81 X:A1 Y:80 P:A4 SP:F9
D41A  E8        INX  A:81 X:A1 Y:80 P:A4 SP:FB
D41B  A9 7F     LDA  A:81 X:A2 Y:80 P:A4 SP:FB
D41D  85 78     STA  A:7F X:A2 Y:80 P:24 SP:FB
D41F  C4 78     CPY  A:7F X:A2 Y:80 P:24 SP:FB
D421  20 27 F9  JSR  A:7F X:A2 Y:80 P:25 SP:FB
F927  90 05     BCC  A:7F X:A2 Y:80 P:25 SP:F9
F929  F0 03     BEQ  A:7F X:A2 Y:80 P:25 SP:F9
F92B  30 01     BMI  A:7F X:A2 Y:80 P:25 SP:F9
F92D  60        RTS  A:7F X:A2 Y:80 P:25 SP:F9
D424  E8        INX  A:7F X:A2 Y:80 P:25 SP:FB
D425  8A        TXA  A:7F X:A3 Y:80 P:A5 SP:FB
D426  A8        TAY  A:A3 X:A3 Y:80 P:A5 SP:FB
D427  20 90 F9  JSR  A:A3 X:A3 Y:A3 P:A5 SP:FB
F990  A2 55     LDX  A:A3 X:A3 Y:A3 P:A5 SP:F9
F992  A9 FF     LDA  A:A3 X:55 Y:A3 P:25 SP:F9
F994  85 01     STA  A:FF X:55 Y:A3 P:A5 SP:F9
F996  EA        NOP  A:FF X:55 Y:A3 P:A5 SP:F9
F997  24 01     BIT  A:FF X:55 Y:A3 P:A5 SP:F9
F999  38        SEC  A:FF X:55 Y:A3 P:E5 SP:F9
F99A  A9 01     LDA  A:FF X:55 Y:A3 P:E5 SP:F9
F99C  60        RTS  A:01 X:55 Y:A3 P:65 SP:F9
D42A  85 78     STA  A:01 X:55 Y:A3 P:65 SP:FB
D42C  46 78     LSR  A:01 X:55 Y:A3 P:65 SP:FB
D42E  A5 78     LDA  A:01 X:55 Y:A3 P:67 SP:FB
D430  20 9D F9  JSR  A:00 X:55 Y:A3 P:67 SP:FB
F99D  90 1B     BCC  A:00 X:55 Y:A3 P:67 SP:F9
F99F  D0 19     BNE  A:00 X:55 Y:A3 P:67 SP:F9
F9A1  30 17     BMI  A:00 X:55 Y:A3 P:67 SP:F9
F9A3  50 15     BVC  A:00 X:55 Y:A3 P:67 SP:F9
F9A5  C9 00     CMP  A:00 X:55 Y:A3 P:67 SP:F9
F9A7  D0 11     BNE  A:00 X:55 Y:A3 P:67 SP:F9
F9A9  B8        CLV  A:00 X:55 Y:A3 P:67 SP:F9
F9AA  A9 AA     LDA  A:00 X:55 Y:A3 P:27 SP:F9
F9AC  60        RTS  A:AA X:55 Y:A3 P:A5 SP:F9
D433  C8        INY  A:AA X:55 Y:A3 P:A5 SP:FB
D434  85 78     STA  A:AA X:55 Y:A4 P:A5 SP:FB
D436  46 78     LSR  A:AA X:55 Y:A4 P:A5 SP:FB
D438  A5 78     LDA  A:AA X:55 Y:A4 P:24 SP:FB
D43A  20 AD F9  JSR  A:55 X:55 Y:A4 P:24 SP:FB
F9AD  B0 0B     BCS  A:55 X:55 Y:A4 P:24 SP:F9
F9AF  F0 09     BEQ  A:55 X:55 Y:A4 P:24 SP:F9
F9B1  30 07     BMI  A:55 X:55 Y:A4 P:24 SP:F9
F9B3  70 05     BVS  A:55 X:55 Y:A4 P:24 SP:F9
F9B5  C9 55     CMP  A:55 X:55 Y:A4 P:24 SP:F9
F9B7  D0 01     BNE  A:55 X:55 Y:A4 P:27 SP:F9
F9B9  60        RTS  A:55 X:55 Y:A4 P:27 SP:F9
D43D  C8        INY  A:55 X:55 Y:A4 P:27 SP:FB
D43E  20 BD F9  JSR  A:55 X:55 Y:A5 P:A5 SP:FB
F9BD  24 01     BIT  A:55 X:55 Y:A5 P:A5 SP:F9
F9BF  38        SEC  A:55 X:55 Y:A5 P:E5 SP:F9
F9C0  A9 80     LDA  A:55 X:55 Y:A5 P:E5 SP:F9
F9C2  60        RTS  A:80 X:55 Y:A5 P:E5 SP:F9
D441  85 78     STA  A:80 X:55 Y:A5 P:E5 SP:FB
D443  06 78     ASL  A:80 X:55 Y:A5 P:E5 SP:FB
D445  A5 78     LDA  A:80 X:55 Y:A5 P:67 SP:FB
D447  20 C3 F9  JSR  A:00 X:55 Y:A5 P:67 SP:FB
F9C3  90 1C     BCC  A:00 X:55 Y:A5 P:67 SP:F9
F9C5  D0 1A     BNE  A:00 X:55 Y:A5 P:67 SP:F9
F9C7  30 18     BMI  A:00 X:55 Y:A5 P:67 SP:F9
F9C9  50 16     BVC  A:00 X:55 Y:A5 P:67 SP:F9
F9CB  C9 00     CMP  A:00 X:55 Y:A5 P:67 SP:F9
F9CD  D0 12     BNE  A:00 X:55 Y:A5 P:67 SP:F9
F9CF  B8        CLV  A:00 X:55 Y:A5 P:67 SP:F9
F9D0  A9 55     LDA  A:00 X:55 Y:A5 P:27 SP:F9
F9D2  38        SEC  A:55 X:55 Y:A5 P:25 SP:F9
F9D3  60        RTS  A:55 X:55 Y:A5 P:25 SP:F9
D44A  C8        INY  A:55 X:55 Y:A5 P:25 SP:FB
D44B  85 78     STA  A:55 X:55 Y:A6 P:A5 SP:FB
D44D  06 78     ASL  A:55 X:55 Y:A6 P:A5 SP:FB
D44F  A5 78     LDA  A:55 X:55 Y:A6 P:A4 SP:FB
D451  20 D4 F9  JSR  A:AA X:55 Y:A6 P:A4 SP:FB
F9D4  B0 0B     BCS  A:AA X:55 Y:A6 P:A4 SP:F9
F9D6  F0 09     BEQ  A:AA X:55 Y:A6 P:A4 SP:F9
F9D8  10 07     BPL  A:AA X:55 Y:A6 P:A4 SP:F9
F9DA  70 05     BVS  A:AA X:55 Y:A6 P:A4 SP:F9
F9DC  C9 AA     CMP  A:AA X:55 Y:A6 P:A4 SP:F9
F9DE  D0 01     BNE  A:AA X:55 Y:A6 P:27 SP:F9
F9E0  60        RTS  A:AA X:55 Y:A6 P:27 SP:F9
D454  C8        INY  A:AA X:55 Y:A6 P:27 SP:FB
D455  20 E4 F9  JSR  A:AA X:55 Y:A7 P:A5 SP:FB
F9E4  24 01     BIT  A:AA X:55 Y:A7 P:A5 SP:F9
F9E6  38        SEC  A:AA X:55 Y:A7 P:E5 SP:F9
F9E7  A9 01     LDA  A:AA X:55 Y:A7 P:E5 SP:F9
F9E9  60        RTS  A:01 X:55 Y:A7 P:65 SP:F9
D458  85 78     STA  A:01 X:55 Y:A7 P:65 SP:FB
D45A  66 78     ROR  A:01 X:55 Y:A7 P:65 SP:FB
D45C  A5 78     LDA  A:01 X:55 Y:A7 P:E5 SP:FB
D45E  20 EA F9  JSR  A:80 X:55 Y:A7 P:E5 SP:FB
F9EA  90 1C     BCC  A:80 X:55 Y:A7 P:E5 SP:F9
F9EC  F0 1A     BEQ  A:80 X:55 Y:A7 P:E5 SP:F9
F9EE  10 18     BPL  A:80 X:55 Y:A7 P:E5 SP:F9
F9F0  50 16     BVC  A:80 X:55 Y:A7 P:E5 SP:F9
F9F2  C9 80     CMP  A:80 X:55 Y:A7 P:E5 SP:F9
F9F4  D0 12     BNE  A:80 X:55 Y:A7 P:67 SP:F9
F9F6  B8        CLV  A:80 X:55 Y:A7 P:67 SP:F9
F9F7  18        CLC  A:80 X:55 Y:A7 P:27 SP:F9
F9F8  A9 55     LDA  A:80 X:55 Y:A7 P:26 SP:F9
F9FA  60        RTS  A:55 X:55 Y:A7 P:24 SP:F9
D461  C8        INY  A:55 X:55 Y:A7 P:24 SP:FB
D462  85 78     STA  A:55 X:55 Y:A8 P:A4 SP:FB
D464  66 78     ROR  A:55 X:55 Y:A8 P:A4 SP:FB
D466  A5 78     LDA  A:55 X:55 Y:A8 P:25 SP:FB
D468  20 FB F9  JSR  A:2A X:55 Y:A8 P:25 SP:FB
F9FB  90 0B     BCC  A:2A X:55 Y:A8 P:25 SP:F9
F9FD  F0 09     BEQ  A:2A X:55 Y:A8 P:25 SP:F9
F9FF  30 07     BMI  A:2A X:55 Y:A8 P:25 SP:F9
FA01  70 05     BVS  A:2A X:55 Y:A8 P:25 SP:F9
FA03  C9 2A     CMP  A:2A X:55 Y:A8 P:25 SP:F9
FA05  D0 01     BNE  A:2A X:55 Y:A8 P:27 SP:F9
FA07  60        RTS  A:2A X:55 Y:A8 P:27 SP:F9
D46B  C8        INY  A:2A X:55 Y:A8 P:27 SP:FB
D46C  20 0A FA  JSR  A:2A X:55 Y:A9 P:A5 SP:FB
FA0A  24 01     BIT  A:2A X:55 Y:A9 P:A5 SP:F9
FA0C  38        SEC  A:2A X:55 Y:A9 P:E5 SP:F9
FA0D  A9 80     LDA  A:2A X:55 Y:A9 P:E5 SP:F9
FA0F  60        RTS  A:80 X:55 Y:A9 P:E5 SP:F9
D46F  85 78     STA  A:80 X:55 Y:A9 P:E5 SP:FB
D471  26 78     ROL  A:80 X:55 Y:A9 P:E5 SP:FB
D473  A5 78     LDA  A:80 X:55 Y:A9 P:65 SP:FB
D475  20 10 FA  JSR  A:01 X:55 Y:A9 P:65 SP:FB
FA10  90 1C     BCC  A:01 X:55 Y:A9 P:65 SP:F9
FA12  F0 1A     BEQ  A:01 X:55 Y:A9 P:65 SP:F9
FA14  30 18     BMI  A:01 X:55 Y:A9 P:65 SP:F9
FA16  50 16     BVC  A:01 X:55 Y:A9 P:65 SP:F9
FA18  C9 01     CMP  A:01 X:55 Y:A9 P:65 SP:F9
FA1A  D0 12     BNE  A:01 X:55 Y:A9 P:67 SP:F9
FA1C  B8        CLV  A:01 X:55 Y:A9 P:67 SP:F9
FA1D  18        CLC  A:01 X:55 Y:A9 P:27 SP:F9
FA1E  A9 55     LDA  A:01 X:55 Y:A9 P:26 SP:F9
FA20  60        RTS  A:55 X:55 Y:A9 P:24 SP:F9
D478  C8        INY  A:55 X:55 Y:A9 P:24 SP:FB
D479  85 78     STA  A:55 X:55 Y:AA P:A4 SP:FB
D47B  26 78     ROL  A:55 X:55 Y:AA P:A4 SP:FB
D47D  A5 78     LDA  A:55 X:55 Y:AA P:A4 SP:FB
D47F  20 21 FA  JSR  A:AA X:55 Y:AA P:A4 SP:FB
FA21  B0 0B     BCS  A:AA X:55 Y:AA P:A4 SP:F9
FA23  F0 09     BEQ  A:AA X:55 Y:AA P:A4 SP:F9
FA25  10 07     BPL  A:AA X:55 Y:AA P:A4 SP:F9
FA27  70 05     BVS  A:AA X:55 Y:AA P:A4 SP:F9
FA29  C9 AA     CMP  A:AA X:55 Y:AA P:A4 SP:F9
FA2B  D0 01     BNE  A:AA X:55 Y:AA P:27 SP:F9
FA2D  60        RTS  A:AA X:55 Y:AA P:27 SP:F9
D482  A9 FF     LDA  A:AA X:55 Y:AA P:27 SP:FB
D484  85 78     STA  A:FF X:55 Y:AA P:A5 SP:FB
D486  85 01     STA  A:FF X:55 Y:AA P:A5 SP:FB
D488  24 01     BIT  A:FF X:55 Y:AA P:A5 SP:FB
D48A  38        SEC  A:FF X:55 Y:AA P:E5 SP:FB
D48B  E6 78     INC  A:FF X:55 Y:AA P:E5 SP:FB
D48D  D0 0C     BNE  A:FF X:55 Y:AA P:67 SP:FB
D48F  30 0A     BMI  A:FF X:55 Y:AA P:67 SP:FB
D491  50 08     BVC  A:FF X:55 Y:AA P:67 SP:FB
D493  90 06     BCC  A:FF X:55 Y:AA P:67 SP:FB
D495  A5 78     LDA  A:FF X:55 Y:AA P:67 SP:FB
D497  C9 00     CMP  A:00 X:55 Y:AA P:67 SP:FB
D499  F0 04     BEQ  A:00 X:55 Y:AA P:67 SP:FB
D49F  A9 7F     LDA  A:00 X:55 Y:AA P:67 SP:FB
D4A1  85 78     STA  A:7F X:55 Y:AA P:65 SP:FB
D4A3  B8        CLV  A:7F X:55 Y:AA P:65 SP:FB
D4A4  18        CLC  A:7F X:55 Y:AA P:25 SP:FB
D4A5  E6 78     INC  A:7F X:55 Y:AA P:24 SP:FB
D4A7  F0 0C     BEQ  A:7F X:55 Y:AA P:A4 SP:FB
D4A9  10 0A     BPL  A:7F X:55 Y:AA P:A4 SP:FB
D4AB  70 08     BVS  A:7F X:55 Y:AA P:A4 SP:FB
D4AD  B0 06     BCS  A:7F X:55 Y:AA P:A4 SP:FB
D4AF  A5 78     LDA  A:7F X:55 Y:AA P:A4 SP:FB
D4B1  C9 80     CMP  A:80 X:55 Y:AA P:A4 SP:FB
D4B3  F0 04     BEQ  A:80 X:55 Y:AA P:27 SP:FB
D4B9  A9 00     LDA  A:80 X:55 Y:AA P:27 SP:FB
D4BB  85 78     STA  A:00 X:55 Y:AA P:27 SP:FB
D4BD  24 01     BIT  A:00 X:55 Y:AA P:27 SP:FB
D4BF  38        SEC  A:00 X:55 Y:AA P:E7 SP:FB
D4C0  C6 78     DEC  A:00 X:55 Y:AA P:E7 SP:FB
D4C2  F0 0C     BEQ  A:00 X:55 Y:AA P:E5 SP:FB
D4C4  10 0A     BPL  A:00 X:55 Y:AA P:E5 SP:FB
D4C6  50 08     BVC  A:00 X:55 Y:AA P:E5 SP:FB
D4C8  90 06     BCC  A:00 X:55 Y:AA P:E5 SP:FB
D4CA  A5 78     LDA  A:00 X:55 Y:AA P:E5 SP:FB
D4CC  C9 FF     CMP  A:FF X:55 Y:AA P:E5 SP:FB
D4CE  F0 04     BEQ  A:FF X:55 Y:AA P:67 SP:FB
D4D4  A9 80     LDA  A:FF X:55 Y:AA P:67 SP:FB
D4D6  85 78     STA  A:80 X:55 Y:AA P:E5 SP:FB
D4D8  B8        CLV  A:80 X:55 Y:AA P:E5 SP:FB
D4D9  18        CLC  A:80 X:55 Y:AA P:A5 SP:FB
D4DA  C6 78     DEC  A:80 X:55 Y:AA P:A4 SP:FB
D4DC  F0 0C     BEQ  A:80 X:55 Y:AA P:24 SP:FB
D4DE  30 0A     BMI  A:80 X:55 Y:AA P:24 SP:FB
D4E0  70 08     BVS  A:80 X:55 Y:AA P:24 SP:FB
D4E2  B0 06     BCS  A:80 X:55 Y:AA P:24 SP:FB
D4E4  A5 78     LDA  A:80 X:55 Y:AA P:24 SP:FB
D4E6  C9 7F     CMP  A:7F X:55 Y:AA P:24 SP:FB
D4E8  F0 04     BEQ  A:7F X:55 Y:AA P:27 SP:FB
D4EE  A9 01     LDA  A:7F X:55 Y:AA P:27 SP:FB
D4F0  85 78     STA  A:01 X:55 Y:AA P:25 SP:FB
D4F2  C6 78     DEC  A:01 X:55 Y:AA P:25 SP:FB
D4F4  F0 04     BEQ  A:01 X:55 Y:AA P:27 SP:FB
D4FA  60        RTS  A:01 X:55 Y:AA P:27 SP:FB
C615  20 FB D4  JSR  A:01 X:55 Y:AA P:27 SP:FD
D4FB  A9 55     LDA  A:01 X:55 Y:AA P:27 SP:FB
D4FD  8D 78 06  STA  A:55 X:55 Y:AA P:25 SP:FB
D500  A9 FF     LDA  A:55 X:55 Y:AA P:25 SP:FB
D502  85 01     STA  A:FF X:55 Y:AA P:A5 SP:FB
D504  24 01     BIT  A:FF X:55 Y:AA P:A5 SP:FB
D506  A0 11     LDY  A:FF X:55 Y:AA P:E5 SP:FB
D508  A2 23     LDX  A:FF X:55 Y:11 P:65 SP:FB
D50A  A9 00     LDA  A:FF X:23 Y:11 P:65 SP:FB
D50C  AD 78 06  LDA  A:00 X:23 Y:11 P:67 SP:FB
D50F  F0 10     BEQ  A:55 X:23 Y:11 P:65 SP:FB
D511  30 0E     BMI  A:55 X:23 Y:11 P:65 SP:FB
D513  C9 55     CMP  A:55 X:23 Y:11 P:65 SP:FB
D515  D0 0A     BNE  A:55 X:23 Y:11 P:67 SP:FB
D517  C0 11     CPY  A:55 X:23 Y:11 P:67 SP:FB
D519  D0 06     BNE  A:55 X:23 Y:11 P:67 SP:FB
D51B  E0 23     CPX  A:55 X:23 Y:11 P:67 SP:FB
D51D  50 02     BVC  A:55 X:23 Y:11 P:67 SP:FB
D51F  F0 04     BEQ  A:55 X:23 Y:11 P:67 SP:FB
D525  A9 46     LDA  A:55 X:23 Y:11 P:67 SP:FB
D527  24 01     BIT  A:46 X:23 Y:11 P:65 SP:FB
D529  8D 78 06  STA  A:46 X:23 Y:11 P:E5 SP:FB
D52C  F0 0B     BEQ  A:46 X:23 Y:11 P:E5 SP:FB
D52E  10 09     BPL  A:46 X:23 Y:11 P:E5 SP:FB
D530  50 07     BVC  A:46 X:23 Y:11 P:E5 SP:FB
D532  AD 78 06  LDA  A:46 X:23 Y:11 P:E5 SP:FB
D535  C9 46     CMP  A:46 X:23 Y:11 P:65 SP:FB
D537  F0 04     BEQ  A:46 X:23 Y:11 P:67 SP:FB
D53D  A9 55     LDA  A:46 X:23 Y:11 P:67 SP:FB
D53F  8D 78 06  STA  A:55 X:23 Y:11 P:65 SP:FB
D542  24 01     BIT  A:55 X:23 Y:11 P:65 SP:FB
D544  A9 11     LDA  A:55 X:23 Y:11 P:E5 SP:FB
D546  A2 23     LDX  A:11 X:23 Y:11 P:65 SP:FB
D548  A0 00     LDY  A:11 X:23 Y:11 P:65 SP:FB
D54A  AC 78 06  LDY  A:11 X:23 Y:00 P:67 SP:FB
D54D  F0 10     BEQ  A:11 X:23 Y:55 P:65 SP:FB
D54F  30 0E     BMI  A:11 X:23 Y:55 P:65 SP:FB
D551  C0 55     CPY  A:11 X:23 Y:55 P:65 SP:FB
D553  D0 0A     BNE  A:11 X:23 Y:55 P:67 SP:FB
D555  C9 11     CMP  A:11 X:23 Y:55 P:67 SP:FB
D557  D0 06     BNE  A:11 X:23 Y:55 P:67 SP:FB
D559  E0 23     CPX  A:11 X:23 Y:55 P:67 SP:FB
D55B  50 02     BVC  A:11 X:23 Y:55 P:67 SP:FB
D55D  F0 04     BEQ  A:11 X:23 Y:55 P:67 SP:FB
D563  A0 46     LDY  A:11 X:23 Y:55 P:67 SP:FB
D565  24 01     BIT  A:11 X:23 Y:46 P:65 SP:FB
D567  8C 78 06  STY  A:11 X:23 Y:46 P:E5 SP:FB
D56A  F0 0B     BEQ  A:11 X:23 Y:46 P:E5 SP:FB
D56C  10 09     BPL  A:11 X:23 Y:46 P:E5 SP:FB
D56E  50 07     BVC  A:11 X:23 Y:46 P:E5 SP:FB
D570  AC 78 06  LDY  A:11 X:23 Y:46 P:E5 SP:FB
D573  C0 46     CPY  A:11 X:23 Y:46 P:65 SP:FB
D575  F0 04     BEQ  A:11 X:23 Y:46 P:67 SP:FB
D57B  24 01     BIT  A:11 X:23 Y:46 P:67 SP:FB
D57D  A9 55     LDA  A:11 X:23 Y:46 P:E5 SP:FB
D57F  8D 78 06  STA  A:55 X:23 Y:46 P:65 SP:FB
D582  A0 11     LDY  A:55 X:23 Y:46 P:65 SP:FB
D584  A9 23     LDA  A:55 X:23 Y:11 P:65 SP:FB
D586  A2 00     LDX  A:23 X:23 Y:11 P:65 SP:FB
D588  AE 78 06  LDX  A:23 X:00 Y:11 P:67 SP:FB
D58B  F0 10     BEQ  A:23 X:55 Y:11 P:65 SP:FB
D58D  30 0E     BMI  A:23 X:55 Y:11 P:65 SP:FB
D58F  E0 55     CPX  A:23 X:55 Y:11 P:65 SP:FB
D591  D0 0A     BNE  A:23 X:55 Y:11 P:67 SP:FB
D593  C0 11     CPY  A:23 X:55 Y:11 P:67 SP:FB
D595  D0 06     BNE  A:23 X:55 Y:11 P:67 SP:FB
D597  C9 23     CMP  A:23 X:55 Y:11 P:67 SP:FB
D599  50 02     BVC  A:23 X:55 Y:11 P:67 SP:FB
D59B  F0 04     BEQ  A:23 X:55 Y:11 P:67 SP:FB
D5A1  A2 46     LDX  A:23 X:55 Y:11 P:67 SP:FB
D5A3  24 01     BIT  A:23 X:46 Y:11 P:65 SP:FB
D5A5  8E 78 06  STX  A:23 X:46 Y:11 P:E5 SP:FB
D5A8  F0 0B     BEQ  A:23 X:46 Y:11 P:E5 SP:FB
D5AA  10 09     BPL  A:23 X:46 Y:11 P:E5 SP:FB
D5AC  50 07     BVC  A:23 X:46 Y:11 P:E5 SP:FB
D5AE  AE 78 06  LDX  A:23 X:46 Y:11 P:E5 SP:FB
D5B1  E0 46     CPX  A:23 X:46 Y:11 P:65 SP:FB
D5B3  F0 04     BEQ  A:23 X:46 Y:11 P:67 SP:FB
D5B9  A9 C0     LDA  A:23 X:46 Y:11 P:67 SP:FB
D5BB  8D 78 06  STA  A:C0 X:46 Y:11 P:E5 SP:FB
D5BE  A2 33     LDX  A:C0 X:46 Y:11 P:E5 SP:FB
D5C0  A0 88     LDY  A:C0 X:33 Y:11 P:65 SP:FB
D5C2  A9 05     LDA  A:C0 X:33 Y:88 P:E5 SP:FB
D5C4  2C 78 06  BIT  A:05 X:33 Y:88 P:65 SP:FB
D5C7  10 10     BPL  A:05 X:33 Y:88 P:E7 SP:FB
D5C9  50 0E     BVC  A:05 X:33 Y:88 P:E7 SP:FB
D5CB  D0 0C     BNE  A:05 X:33 Y:88 P:E7 SP:FB
D5CD  C9 05     CMP  A:05 X:33 Y:88 P:E7 SP:FB
D5CF  D0 08     BNE  A:05 X:33 Y:88 P:67 SP:FB
D5D1  E0 33     CPX  A:05 X:33 Y:88 P:67 SP:FB
D5D3  D0 04     BNE  A:05 X:33 Y:88 P:67 SP:FB
D5D5  C0 88     CPY  A:05 X:33 Y:88 P:67 SP:FB
D5D7  F0 04     BEQ  A:05 X:33 Y:88 P:67 SP:FB
D5DD  A9 03     LDA  A:05 X:33 Y:88 P:67 SP:FB
D5DF  8D 78 06  STA  A:03 X:33 Y:88 P:65 SP:FB
D5E2  A9 01     LDA  A:03 X:33 Y:88 P:65 SP:FB
D5E4  2C 78 06  BIT  A:01 X:33 Y:88 P:65 SP:FB
D5E7  30 08     BMI  A:01 X:33 Y:88 P:25 SP:FB
D5E9  70 06     BVS  A:01 X:33 Y:88 P:25 SP:FB
D5EB  F0 04     BEQ  A:01 X:33 Y:88 P:25 SP:FB
D5ED  C9 01     CMP  A:01 X:33 Y:88 P:25 SP:FB
D5EF  F0 04     BEQ  A:01 X:33 Y:88 P:27 SP:FB
D5F5  A0 B8     LDY  A:01 X:33 Y:88 P:27 SP:FB
D5F7  A9 AA     LDA  A:01 X:33 Y:B8 P:A5 SP:FB
D5F9  8D 78 06  STA  A:AA X:33 Y:B8 P:A5 SP:FB
D5FC  20 B6 F7  JSR  A:AA X:33 Y:B8 P:A5 SP:FB
F7B6  18        CLC  A:AA X:33 Y:B8 P:A5 SP:F9
F7B7  A9 FF     LDA  A:AA X:33 Y:B8 P:A4 SP:F9
F7B9  85 01     STA  A:FF X:33 Y:B8 P:A4 SP:F9
F7BB  24 01     BIT  A:FF X:33 Y:B8 P:A4 SP:F9
F7BD  A9 55     LDA  A:FF X:33 Y:B8 P:E4 SP:F9
F7BF  60        RTS  A:55 X:33 Y:B8 P:64 SP:F9
D5FF  0D 78 06  ORA  A:55 X:33 Y:B8 P:64 SP:FB
D602  20 C0 F7  JSR  A:FF X:33 Y:B8 P:E4 SP:FB
F7C0  B0 09     BCS  A:FF X:33 Y:B8 P:E4 SP:F9
F7C2  10 07     BPL  A:FF X:33 Y:B8 P:E4 SP:F9
F7C4  C9 FF     CMP  A:FF X:33 Y:B8 P:E4 SP:F9
F7C6  D0 03     BNE  A:FF X:33 Y:B8 P:67 SP:F9
F7C8  50 01     BVC  A:FF X:33 Y:B8 P:67 SP:F9
F7CA  60        RTS  A:FF X:33 Y:B8 P:67 SP:F9
D605  C8        INY  A:FF X:33 Y:B8 P:67 SP:FB
D606  A9 00     LDA  A:FF X:33 Y:B9 P:E5 SP:FB
D608  8D 78 06  STA  A:00 X:33 Y:B9 P:67 SP:FB
D60B  20 CE F7  JSR  A:00 X:33 Y:B9 P:67 SP:FB
F7CE  38        SEC  A:00 X:33 Y:B9 P:67 SP:F9
F7CF  B8        CLV  A:00 X:33 Y:B9 P:67 SP:F9
F7D0  A9 00     LDA  A:00 X:33 Y:B9 P:27 SP:F9
F7D2  60        RTS  A:00 X:33 Y:B9 P:27 SP:F9
D60E  0D 78 06  ORA  A:00 X:33 Y:B9 P:27 SP:FB
D611  20 D3 F7  JSR  A:00 X:33 Y:B9 P:27 SP:FB
F7D3  D0 07     BNE  A:00 X:33 Y:B9 P:27 SP:F9
F7D5  70 05     BVS  A:00 X:33 Y:B9 P:27 SP:F9
F7D7  90 03     BCC  A:00 X:33 Y:B9 P:27 SP:F9
F7D9  30 01     BMI  A:00 X:33 Y:B9 P:27 SP:F9
F7DB  60        RTS  A:00 X:33 Y:B9 P:27 SP:F9
D614  C8        INY  A:00 X:33 Y:B9 P:27 SP:FB
D615  A9 AA     LDA  A:00 X:33 Y:BA P:A5 SP:FB
D617  8D 78 06  STA  A:AA X:33 Y:BA P:A5 SP:FB
D61A  20 DF F7  JSR  A:AA X:33 Y:BA P:A5 SP:FB
F7DF  18        CLC  A:AA X:33 Y:BA P:A5 SP:F9
F7E0  24 01     BIT  A:AA X:33 Y:BA P:A4 SP:F9
F7E2  A9 55     LDA  A:AA X:33 Y:BA P:E4 SP:F9
F7E4  60        RTS  A:55 X:33 Y:BA P:64 SP:F9
D61D  2D 78 06  AND  A:55 X:33 Y:BA P:64 SP:FB
D620  20 E5 F7  JSR  A:00 X:33 Y:BA P:66 SP:FB
F7E5  D0 07     BNE  A:00 X:33 Y:BA P:66 SP:F9
F7E7  50 05     BVC  A:00 X:33 Y:BA P:66 SP:F9
F7E9  B0 03     BCS  A:00 X:33 Y:BA P:66 SP:F9
F7EB  30 01     BMI  A:00 X:33 Y:BA P:66 SP:F9
F7ED  60        RTS  A:00 X:33 Y:BA P:66 SP:F9
D623  C8        INY  A:00 X:33 Y:BA P:66 SP:FB
D624  A9 EF     LDA  A:00 X:33 Y:BB P:E4 SP:FB
D626  8D 78 06  STA  A:EF X:33 Y:BB P:E4 SP:FB
D629  20 F1 F7  JSR  A:EF X:33 Y:BB P:E4 SP:FB
F7F1  38        SEC  A:EF X:33 Y:BB P:E4 SP:F9
F7F2  B8        CLV  A:EF X:33 Y:BB P:E5 SP:F9
F7F3  A9 F8     LDA  A:EF X:33 Y:BB P:A5 SP:F9
F7F5  60        RTS  A:F8 X:33 Y:BB P:A5 SP:F9
D62C  2D 78 06  AND  A:F8 X:33 Y:BB P:A5 SP:FB
D62F  20 F6 F7  JSR  A:E8 X:33 Y:BB P:A5 SP:FB
F7F6  90 09     BCC  A:E8 X:33 Y:BB P:A5 SP:F9
F7F8  10 07     BPL  A:E8 X:33 Y:BB P:A5 SP:F9
F7FA  C9 E8     CMP  A:E8 X:33 Y:BB P:A5 SP:F9
F7FC  D0 03     BNE  A:E8 X:33 Y:BB P:27 SP:F9
F7FE  70 01     BVS  A:E8 X:33 Y:BB P:27 SP:F9
F800  60        RTS  A:E8 X:33 Y:BB P:27 SP:F9
D632  C8        INY  A:E8 X:33 Y:BB P:27 SP:FB
D633  A9 AA     LDA  A:E8 X:33 Y:BC P:A5 SP:FB
D635  8D 78 06  STA  A:AA X:33 Y:BC P:A5 SP:FB
D638  20 04 F8  JSR  A:AA X:33 Y:BC P:A5 SP:FB
F804  18        CLC  A:AA X:33 Y:BC P:A5 SP:F9
F805  24 01     BIT  A:AA X:33 Y:BC P:A4 SP:F9
F807  A9 5F     LDA  A:AA X:33 Y:BC P:E4 SP:F9
F809  60        RTS  A:5F X:33 Y:BC P:64 SP:F9
D63B  4D 78 06  EOR  A:5F X:33 Y:BC P:64 SP:FB
D63E  20 0A F8  JSR  A:F5 X:33 Y:BC P:E4 SP:FB
F80A  B0 09     BCS  A:F5 X:33 Y:BC P:E4 SP:F9
F80C  10 07     BPL  A:F5 X:33 Y:BC P:E4 SP:F9
F80E  C9 F5     CMP  A:F5 X:33 Y:BC P:E4 SP:F9
F810  D0 03     BNE  A:F5 X:33 Y:BC P:67 SP:F9
F812  50 01     BVC  A:F5 X:33 Y:BC P:67 SP:F9
F814  60        RTS  A:F5 X:33 Y:BC P:67 SP:F9
D641  C8        INY  A:F5 X:33 Y:BC P:67 SP:FB
D642  A9 70     LDA  A:F5 X:33 Y:BD P:E5 SP:FB
D644  8D 78 06  STA  A:70 X:33 Y:BD P:65 SP:FB
D647  20 18 F8  JSR  A:70 X:33 Y:BD P:65 SP:FB
F818  38        SEC  A:70 X:33 Y:BD P:65 SP:F9
F819  B8        CLV  A:70 X:33 Y:BD P:65 SP:F9
F81A  A9 70     LDA  A:70 X:33 Y:BD P:25 SP:F9
F81C  60        RTS  A:70 X:33 Y:BD P:25 SP:F9
D64A  4D 78 06  EOR  A:70 X:33 Y:BD P:25 SP:FB
D64D  20 1D F8  JSR  A:00 X:33 Y:BD P:27 SP:FB
F81D  D0 07     BNE  A:00 X:33 Y:BD P:27 SP:F9
F81F  70 05     BVS  A:00 X:33 Y:BD P:27 SP:F9
F821  90 03     BCC  A:00 X:33 Y:BD P:27 SP:F9
F823  30 01     BMI  A:00 X:33 Y:BD P:27 SP:F9
F825  60        RTS  A:00 X:33 Y:BD P:27 SP:F9
D650  C8        INY  A:00 X:33 Y:BD P:27 SP:FB
D651  A9 69     LDA  A:00 X:33 Y:BE P:A5 SP:FB
D653  8D 78 06  STA  A:69 X:33 Y:BE P:25 SP:FB
D656  20 29 F8  JSR  A:69 X:33 Y:BE P:25 SP:FB
F829  18        CLC  A:69 X:33 Y:BE P:25 SP:F9
F82A  24 01     BIT  A:69 X:33 Y:BE P:24 SP:F9
F82C  A9 00     LDA  A:69 X:33 Y:BE P:E4 SP:F9
F82E  60        RTS  A:00 X:33 Y:BE P:66 SP:F9
D659  6D 78 06  ADC  A:00 X:33 Y:BE P:66 SP:FB
D65C  20 2F F8  JSR  A:69 X:33 Y:BE P:24 SP:FB
F82F  30 09     BMI  A:69 X:33 Y:BE P:24 SP:F9
F831  B0 07     BCS  A:69 X:33 Y:BE P:24 SP:F9
F833  C9 69     CMP  A:69 X:33 Y:BE P:24 SP:F9
F835  D0 03     BNE  A:69 X:33 Y:BE P:27 SP:F9
F837  70 01     BVS  A:69 X:33 Y:BE P:27 SP:F9
F839  60        RTS  A:69 X:33 Y:BE P:27 SP:F9
D65F  C8        INY  A:69 X:33 Y:BE P:27 SP:FB
D660  20 3D F8  JSR  A:69 X:33 Y:BF P:A5 SP:FB
F83D  38        SEC  A:69 X:33 Y:BF P:A5 SP:F9
F83E  24 01     BIT  A:69 X:33 Y:BF P:A5 SP:F9
F840  A9 00     LDA  A:69 X:33 Y:BF P:E5 SP:F9
F842  60        RTS  A:00 X:33 Y:BF P:67 SP:F9
D663  6D 78 06  ADC  A:00 X:33 Y:BF P:67 SP:FB
D666  20 43 F8  JSR  A:6A X:33 Y:BF P:24 SP:FB
F843  30 09     BMI  A:6A X:33 Y:BF P:24 SP:F9
F845  B0 07     BCS  A:6A X:33 Y:BF P:24 SP:F9
F847  C9 6A     CMP  A:6A X:33 Y:BF P:24 SP:F9
F849  D0 03     BNE  A:6A X:33 Y:BF P:27 SP:F9
F84B  70 01     BVS  A:6A X:33 Y:BF P:27 SP:F9
F84D  60        RTS  A:6A X:33 Y:BF P:27 SP:F9
D669  C8        INY  A:6A X:33 Y:BF P:27 SP:FB
D66A  A9 7F     LDA  A:6A X:33 Y:C0 P:A5 SP:FB
D66C  8D 78 06  STA  A:7F X:33 Y:C0 P:25 SP:FB
D66F  20 51 F8  JSR  A:7F X:33 Y:C0 P:25 SP:FB
F851  38        SEC  A:7F X:33 Y:C0 P:25 SP:F9
F852  B8        CLV  A:7F X:33 Y:C0 P:25 SP:F9
F853  A9 7F     LDA  A:7F X:33 Y:C0 P:25 SP:F9
F855  60        RTS  A:7F X:33 Y:C0 P:25 SP:F9
D672  6D 78 06  ADC  A:7F X:33 Y:C0 P:25 SP:FB
D675  20 56 F8  JSR  A:FF X:33 Y:C0 P:E4 SP:FB
F856  10 09     BPL  A:FF X:33 Y:C0 P:E4 SP:F9
F858  B0 07     BCS  A:FF X:33 Y:C0 P:E4 SP:F9
F85A  C9 FF     CMP  A:FF X:33 Y:C0 P:E4 SP:F9
F85C  D0 03     BNE  A:FF X:33 Y:C0 P:67 SP:F9
F85E  50 01     BVC  A:FF X:33 Y:C0 P:67 SP:F9
F860  60        RTS  A:FF X:33 Y:C0 P:67 SP:F9
D678  C8        INY  A:FF X:33 Y:C0 P:67 SP:FB
D679  A9 80     LDA  A:FF X:33 Y:C1 P:E5 SP:FB
D67B  8D 78 06  STA  A:80 X:33 Y:C1 P:E5 SP:FB
D67E  20 64 F8  JSR  A:80 X:33 Y:C1 P:E5 SP:FB
F864  18        CLC  A:80 X:33 Y:C1 P:E5 SP:F9
F865  24 01     BIT  A:80 X:33 Y:C1 P:E4 SP:F9
F867  A9 7F     LDA  A:80 X:33 Y:C1 P:E4 SP:F9
F869  60        RTS  A:7F X:33 Y:C1 P:64 SP:F9
D681  6D 78 06  ADC  A:7F X:33 Y:C1 P:64 SP:FB
D684  20 6A F8  JSR  A:FF X:33 Y:C1 P:A4 SP:FB
F86A  10 09     BPL  A:FF X:33 Y:C1 P:A4 SP:F9
F86C  B0 07     BCS  A:FF X:33 Y:C1 P:A4 SP:F9
F86E  C9 FF     CMP  A:FF X:33 Y:C1 P:A4 SP:F9
F870  D0 03     BNE  A:FF X:33 Y:C1 P:27 SP:F9
F872  70 01     BVS  A:FF X:33 Y:C1 P:27 SP:F9
F874  60        RTS  A:FF X:33 Y:C1 P:27 SP:F9
D687  C8        INY  A:FF X:33 Y:C1 P:27 SP:FB
D688  20 78 F8  JSR  A:FF X:33 Y:C2 P:A5 SP:FB
F878  38        SEC  A:FF X:33 Y:C2 P:A5 SP:F9
F879  B8        CLV  A:FF X:33 Y:C2 P:A5 SP:F9
F87A  A9 7F     LDA  A:FF X:33 Y:C2 P:A5 SP:F9
F87C  60        RTS  A:7F X:33 Y:C2 P:25 SP:F9
D68B  6D 78 06  ADC  A:7F X:33 Y:C2 P:25 SP:FB
D68E  20 7D F8  JSR  A:00 X:33 Y:C2 P:27 SP:FB
F87D  D0 07     BNE  A:00 X:33 Y:C2 P:27 SP:F9
F87F  30 05     BMI  A:00 X:33 Y:C2 P:27 SP:F9
F881  70 03     BVS  A:00 X:33 Y:C2 P:27 SP:F9
F883  90 01     BCC  A:00 X:33 Y:C2 P:27 SP:F9
F885  60        RTS  A:00 X:33 Y:C2 P:27 SP:F9
D691  C8        INY  A:00 X:33 Y:C2 P:27 SP:FB
D692  A9 40     LDA  A:00 X:33 Y:C3 P:A5 SP:FB
D694  8D 78 06  STA  A:40 X:33 Y:C3 P:25 SP:FB
D697  20 89 F8  JSR  A:40 X:33 Y:C3 P:25 SP:FB
F889  24 01     BIT  A:40 X:33 Y:C3 P:25 SP:F9
F88B  A9 40     LDA  A:40 X:33 Y:C3 P:E5 SP:F9
F88D  60        RTS  A:40 X:33 Y:C3 P:65 SP:F9
D69A  CD 78 06  CMP  A:40 X:33 Y:C3 P:65 SP:FB
D69D  20 8E F8  JSR  A:40 X:33 Y:C3 P:67 SP:FB
F88E  30 07     BMI  A:40 X:33 Y:C3 P:67 SP:F9
F890  90 05     BCC  A:40 X:33 Y:C3 P:67 SP:F9
F892  D0 03     BNE  A:40 X:33 Y:C3 P:67 SP:F9
F894  50 01     BVC  A:40 X:33 Y:C3 P:67 SP:F9
F896  60        RTS  A:40 X:33 Y:C3 P:67 SP:F9
D6A0  C8        INY  A:40 X:33 Y:C3 P:67 SP:FB
D6A1  48        PHA  A:40 X:33 Y:C4 P:E5 SP:FB
D6A2  A9 3F     LDA  A:40 X:33 Y:C4 P:E5 SP:FA
D6A4  8D 78 06  STA  A:3F X:33 Y:C4 P:65 SP:FA
D6A7  68        PLA  A:3F X:33 Y:C4 P:65 SP:FA
D6A8  20 9A F8  JSR  A:40 X:33 Y:C4 P:65 SP:FB
F89A  B8        CLV  A:40 X:33 Y:C4 P:65 SP:F9
F89B  60        RTS  A:40 X:33 Y:C4 P:25 SP:F9
D6AB  CD 78 06  CMP  A:40 X:33 Y:C4 P:25 SP:FB
D6AE  20 9C F8  JSR  A:40 X:33 Y:C4 P:25 SP:FB
F89C  F0 07     BEQ  A:40 X:33 Y:C4 P:25 SP:F9
F89E  30 05     BMI  A:40 X:33 Y:C4 P:25 SP:F9
F8A0  90 03     BCC  A:40 X:33 Y:C4 P:25 SP:F9
F8A2  70 01     BVS  A:40 X:33 Y:C4 P:25 SP:F9
F8A4  60        RTS  A:40 X:33 Y:C4 P:25 SP:F9
D6B1  C8        INY  A:40 X:33 Y:C4 P:25 SP:FB
D6B2  48        PHA  A:40 X:33 Y:C5 P:A5 SP:FB
D6B3  A9 41     LDA  A:40 X:33 Y:C5 P:A5 SP:FA
D6B5  8D 78 06  STA  A:41 X:33 Y:C5 P:25 SP:FA
D6B8  68        PLA  A:41 X:33 Y:C5 P:25 SP:FA
D6B9  CD 78 06  CMP  A:40 X:33 Y:C5 P:25 SP:FB
D6BC  20 A8 F8  JSR  A:40 X:33 Y:C5 P:A4 SP:FB
F8A8  F0 05     BEQ  A:40 X:33 Y:C5 P:A4 SP:F9
F8AA  10 03     BPL  A:40 X:33 Y:C5 P:A4 SP:F9
F8AC  10 01     BPL  A:40 X:33 Y:C5 P:A4 SP:F9
F8AE  60        RTS  A:40 X:33 Y:C5 P:A4 SP:F9
D6BF  C8        INY  A:40 X:33 Y:C5 P:A4 SP:FB
D6C0  48        PHA  A:40 X:33 Y:C6 P:A4 SP:FB
D6C1  A9 00     LDA  A:40 X:33 Y:C6 P:A4 SP:FA
D6C3  8D 78 06  STA  A:00 X:33 Y:C6 P:26 SP:FA
D6C6  68        PLA  A:00 X:33 Y:C6 P:26 SP:FA
D6C7  20 B2 F8  JSR  A:40 X:33 Y:C6 P:24 SP:FB
F8B2  A9 80     LDA  A:40 X:33 Y:C6 P:24 SP:F9
F8B4  60        RTS  A:80 X:33 Y:C6 P:A4 SP:F9
D6CA  CD 78 06  CMP  A:80 X:33 Y:C6 P:A4 SP:FB
D6CD  20 B5 F8  JSR  A:80 X:33 Y:C6 P:A5 SP:FB
F8B5  F0 05     BEQ  A:80 X:33 Y:C6 P:A5 SP:F9
F8B7  10 03     BPL  A:80 X:33 Y:C6 P:A5 SP:F9
F8B9  90 01     BCC  A:80 X:33 Y:C6 P:A5 SP:F9
F8BB  60        RTS  A:80 X:33 Y:C6 P:A5 SP:F9
D6D0  C8        INY  A:80 X:33 Y:C6 P:A5 SP:FB
D6D1  48        PHA  A:80 X:33 Y:C7 P:A5 SP:FB
D6D2  A9 80     LDA  A:80 X:33 Y:C7 P:A5 SP:FA
D6D4  8D 78 06  STA  A:80 X:33 Y:C7 P:A5 SP:FA
D6D7  68        PLA  A:80 X:33 Y:C7 P:A5 SP:FA
D6D8  CD 78 06  CMP  A:80 X:33 Y:C7 P:A5 SP:FB
D6DB  20 BF F8  JSR  A:80 X:33 Y:C7 P:27 SP:FB
F8BF  D0 05     BNE  A:80 X:33 Y:C7 P:27 SP:F9
F8C1  30 03     BMI  A:80 X:33 Y:C7 P:27 SP:F9
F8C3  90 01     BCC  A:80 X:33 Y:C7 P:27 SP:F9
F8C5  60        RTS  A:80 X:33 Y:C7 P:27 SP:F9
D6DE  C8        INY  A:80 X:33 Y:C7 P:27 SP:FB
D6DF  48        PHA  A:80 X:33 Y:C8 P:A5 SP:FB
D6E0  A9 81     LDA  A:80 X:33 Y:C8 P:A5 SP:FA
D6E2  8D 78 06  STA  A:81 X:33 Y:C8 P:A5 SP:FA
D6E5  68        PLA  A:81 X:33 Y:C8 P:A5 SP:FA
D6E6  CD 78 06  CMP  A:80 X:33 Y:C8 P:A5 SP:FB
D6E9  20 C9 F8  JSR  A:80 X:33 Y:C8 P:A4 SP:FB
F8C9  B0 05     BCS  A:80 X:33 Y:C8 P:A4 SP:F9
F8CB  F0 03     BEQ  A:80 X:33 Y:C8 P:A4 SP:F9
F8CD  10 01     BPL  A:80 X:33 Y:C8 P:A4 SP:F9
F8CF  60        RTS  A:80 X:33 Y:C8 P:A4 SP:F9
D6EC  C8        INY  A:80 X:33 Y:C8 P:A4 SP:FB
D6ED  48        PHA  A:80 X:33 Y:C9 P:A4 SP:FB
D6EE  A9 7F     LDA  A:80 X:33 Y:C9 P:A4 SP:FA
D6F0  8D 78 06  STA  A:7F X:33 Y:C9 P:24 SP:FA
D6F3  68        PLA  A:7F X:33 Y:C9 P:24 SP:FA
D6F4  CD 78 06  CMP  A:80 X:33 Y:C9 P:A4 SP:FB
D6F7  20 D3 F8  JSR  A:80 X:33 Y:C9 P:25 SP:FB
F8D3  90 05     BCC  A:80 X:33 Y:C9 P:25 SP:F9
F8D5  F0 03     BEQ  A:80 X:33 Y:C9 P:25 SP:F9
F8D7  30 01     BMI  A:80 X:33 Y:C9 P:25 SP:F9
F8D9  60        RTS  A:80 X:33 Y:C9 P:25 SP:F9
D6FA  C8        INY  A:80 X:33 Y:C9 P:25 SP:FB
D6FB  A9 40     LDA  A:80 X:33 Y:CA P:A5 SP:FB
D6FD  8D 78 06  STA  A:40 X:33 Y:CA P:25 SP:FB
D700  20 31 F9  JSR  A:40 X:33 Y:CA P:25 SP:FB
F931  24 01     BIT  A:40 X:33 Y:CA P:25 SP:F9
F933  A9 40     LDA  A:40 X:33 Y:CA P:E5 SP:F9
F935  38        SEC  A:40 X:33 Y:CA P:65 SP:F9
F936  60        RTS  A:40 X:33 Y:CA P:65 SP:F9
D703  ED 78 06  SBC  A:40 X:33 Y:CA P:65 SP:FB
D706  20 37 F9  JSR  A:00 X:33 Y:CA P:27 SP:FB
F937  30 0B     BMI  A:00 X:33 Y:CA P:27 SP:F9
F939  90 09     BCC  A:00 X:33 Y:CA P:27 SP:F9
F93B  D0 07     BNE  A:00 X:33 Y:CA P:27 SP:F9
F93D  70 05     BVS  A:00 X:33 Y:CA P:27 SP:F9
F93F  C9 00     CMP  A:00 X:33 Y:CA P:27 SP:F9
F941  D0 01     BNE  A:00 X:33 Y:CA P:27 SP:F9
F943  60        RTS  A:00 X:33 Y:CA P:27 SP:F9
D709  C8        INY  A:00 X:33 Y:CA P:27 SP:FB
D70A  A9 3F     LDA  A:00 X:33 Y:CB P:A5 SP:FB
D70C  8D 78 06  STA  A:3F X:33 Y:CB P:25 SP:FB
D70F  20 47 F9  JSR  A:3F X:33 Y:CB P:25 SP:FB
F947  B8        CLV  A:3F X:33 Y:CB P:25 SP:F9
F948  38        SEC  A:3F X:33 Y:CB P:25 SP:F9
F949  A9 40     LDA  A:3F X:33 Y:CB P:25 SP:F9
F94B  60        RTS  A:40 X:33 Y:CB P:25 SP:F9
D712  ED 78 06  SBC  A:40 X:33 Y:CB P:25 SP:FB
D715  20 4C F9  JSR  A:01 X:33 Y:CB P:25 SP:FB
F94C  F0 0B     BEQ  A:01 X:33 Y:CB P:25 SP:F9
F94E  30 09     BMI  A:01 X:33 Y:CB P:25 SP:F9
F950  90 07     BCC  A:01 X:33 Y:CB P:25 SP:F9
F952  70 05     BVS  A:01 X:33 Y:CB P:25 SP:F9
F954  C9 01     CMP  A:01 X:33 Y:CB P:25 SP:F9
F956  D0 01     BNE  A:01 X:33 Y:CB P:27 SP:F9
F958  60        RTS  A:01 X:33 Y:CB P:27 SP:F9
D718  C8        INY  A:01 X:33 Y:CB P:27 SP:FB
D719  A9 41     LDA  A:01 X:33 Y:CC P:A5 SP:FB
D71B  8D 78 06  STA  A:41 X:33 Y:CC P:25 SP:FB
D71E  20 5C F9  JSR  A:41 X:33 Y:CC P:25 SP:FB
F95C  A9 40     LDA  A:41 X:33 Y:CC P:25 SP:F9
F95E  38        SEC  A:40 X:33 Y:CC P:25 SP:F9
F95F  24 01     BIT  A:40 X:33 Y:CC P:25 SP:F9
F961  60        RTS  A:40 X:33 Y:CC P:E5 SP:F9
D721  ED 78 06  SBC  A:40 X:33 Y:CC P:E5 SP:FB
D724  20 62 F9  JSR  A:FF X:33 Y:CC P:A4 SP:FB
F962  B0 0B     BCS  A:FF X:33 Y:CC P:A4 SP:F9
F964  F0 09     BEQ  A:FF X:33 Y:CC P:A4 SP:F9
F966  10 07     BPL  A:FF X:33 Y:CC P:A4 SP:F9
F968  70 05     BVS  A:FF X:33 Y:CC P:A4 SP:F9
F96A  C9 FF     CMP  A:FF X:33 Y:CC P:A4 SP:F9
F96C  D0 01     BNE  A:FF X:33 Y:CC P:27 SP:F9
F96E  60        RTS  A:FF X:33 Y:CC P:27 SP:F9
D727  C8        INY  A:FF X:33 Y:CC P:27 SP:FB
D728  A9 00     LDA  A:FF X:33 Y:CD P:A5 SP:FB
D72A  8D 78 06  STA  A:00 X:33 Y:CD P:27 SP:FB
D72D  20 72 F9  JSR  A:00 X:33 Y:CD P:27 SP:FB
F972  18        CLC  A:00 X:33 Y:CD P:27 SP:F9
F973  A9 80     LDA  A:00 X:33 Y:CD P:26 SP:F9
F975  60        RTS  A:80 X:33 Y:CD P:A4 SP:F9
D730  ED 78 06  SBC  A:80 X:33 Y:CD P:A4 SP:FB
D733  20 76 F9  JSR  A:7F X:33 Y:CD P:65 SP:FB
F976  90 05     BCC  A:7F X:33 Y:CD P:65 SP:F9
F978  C9 7F     CMP  A:7F X:33 Y:CD P:65 SP:F9
F97A  D0 01     BNE  A:7F X:33 Y:CD P:67 SP:F9
F97C  60        RTS  A:7F X:33 Y:CD P:67 SP:F9
D736  C8        INY  A:7F X:33 Y:CD P:67 SP:FB
D737  A9 7F     LDA  A:7F X:33 Y:CE P:E5 SP:FB
D739  8D 78 06  STA  A:7F X:33 Y:CE P:65 SP:FB
D73C  20 80 F9  JSR  A:7F X:33 Y:CE P:65 SP:FB
F980  38        SEC  A:7F X:33 Y:CE P:65 SP:F9
F981  A9 81     LDA  A:7F X:33 Y:CE P:65 SP:F9
F983  60        RTS  A:81 X:33 Y:CE P:E5 SP:F9
D73F  ED 78 06  SBC  A:81 X:33 Y:CE P:E5 SP:FB
D742  20 84 F9  JSR  A:02 X:33 Y:CE P:65 SP:FB
F984  50 07     BVC  A:02 X:33 Y:CE P:65 SP:F9
F986  90 05     BCC  A:02 X:33 Y:CE P:65 SP:F9
F988  C9 02     CMP  A:02 X:33 Y:CE P:65 SP:F9
F98A  D0 01     BNE  A:02 X:33 Y:CE P:67 SP:F9
F98C  60        RTS  A:02 X:33 Y:CE P:67 SP:F9
D745  C8        INY  A:02 X:33 Y:CE P:67 SP:FB
D746  A9 40     LDA  A:02 X:33 Y:CF P:E5 SP:FB
D748  8D 78 06  STA  A:40 X:33 Y:CF P:65 SP:FB
D74B  20 89 F8  JSR  A:40 X:33 Y:CF P:65 SP:FB
F889  24 01     BIT  A:40 X:33 Y:CF P:65 SP:F9
F88B  A9 40     LDA  A:40 X:33 Y:CF P:E5 SP:F9
F88D  60        RTS  A:40 X:33 Y:CF P:65 SP:F9
D74E  AA        TAX  A:40 X:33 Y:CF P:65 SP:FB
D74F  EC 78 06  CPX  A:40 X:40 Y:CF P:65 SP:FB
D752  20 8E F8  JSR  A:40 X:40 Y:CF P:67 SP:FB
F88E  30 07     BMI  A:40 X:40 Y:CF P:67 SP:F9
F890  90 05     BCC  A:40 X:40 Y:CF P:67 SP:F9
F892  D0 03     BNE  A:40 X:40 Y:CF P:67 SP:F9
F894  50 01     BVC  A:40 X:40 Y:CF P:67 SP:F9
F896  60        RTS  A:40 X:40 Y:CF P:67 SP:F9
D755  C8        INY  A:40 X:40 Y:CF P:67 SP:FB
D756  A9 3F     LDA  A:40 X:40 Y:D0 P:E5 SP:FB
D758  8D 78 06  STA  A:3F X:40 Y:D0 P:65 SP:FB
D75B  20 9A F8  JSR  A:3F X:40 Y:D0 P:65 SP:FB
F89A  B8        CLV  A:3F X:40 Y:D0 P:65 SP:F9
F89B  60        RTS  A:3F X:40 Y:D0 P:25 SP:F9
D75E  EC 78 06  CPX  A:3F X:40 Y:D0 P:25 SP:FB
D761  20 9C F8  JSR  A:3F X:40 Y:D0 P:25 SP:FB
F89C  F0 07     BEQ  A:3F X:40 Y:D0 P:25 SP:F9
F89E  30 05     BMI  A:3F X:40 Y:D0 P:25 SP:F9
F8A0  90 03     BCC  A:3F X:40 Y:D0 P:25 SP:F9
F8A2  70 01     BVS  A:3F X:40 Y:D0 P:25 SP:F9
F8A4  60        RTS  A:3F X:40 Y:D0 P:25 SP:F9
D764  C8        INY  A:3F X:40 Y:D0 P:25 SP:FB
D765  A9 41     LDA  A:3F X:40 Y:D1 P:A5 SP:FB
D767  8D 78 06  STA  A:41 X:40 Y:D1 P:25 SP:FB
D76A  EC 78 06  CPX  A:41 X:40 Y:D1 P:25 SP:FB
D76D  20 A8 F8  JSR  A:41 X:40 Y:D1 P:A4 SP:FB
F8A8  F0 05     BEQ  A:41 X:40 Y:D1 P:A4 SP:F9
F8AA  10 03     BPL  A:41 X:40 Y:D1 P:A4 SP:F9
F8AC  10 01     BPL  A:41 X:40 Y:D1 P:A4 SP:F9
F8AE  60        RTS  A:41 X:40 Y:D1 P:A4 SP:F9
D770  C8        INY  A:41 X:40 Y:D1 P:A4 SP:FB
D771  A9 00     LDA  A:41 X:40 Y:D2 P:A4 SP:FB
D773  8D 78 06  STA  A:00 X:40 Y:D2 P:26 SP:FB
D776  20 B2 F8  JSR  A:00 X:40 Y:D2 P:26 SP:FB
F8B2  A9 80     LDA  A:00 X:40 Y:D2 P:26 SP:F9
F8B4  60        RTS  A:80 X:40 Y:D2 P:A4 SP:F9
D779  AA        TAX  A:80 X:40 Y:D2 P:A4 SP:FB
D77A  EC 78 06  CPX  A:80 X:80 Y:D2 P:A4 SP:FB
D77D  20 B5 F8  JSR  A:80 X:80 Y:D2 P:A5 SP:FB
F8B5  F0 05     BEQ  A:80 X:80 Y:D2 P:A5 SP:F9
F8B7  10 03     BPL  A:80 X:80 Y:D2 P:A5 SP:F9
F8B9  90 01     BCC  A:80 X:80 Y:D2 P:A5 SP:F9
F8BB  60        RTS  A:80 X:80 Y:D2 P:A5 SP:F9
D780  C8        INY  A:80 X:80 Y:D2 P:A5 SP:FB
D781  A9 80     LDA  A:80 X:80 Y:D3 P:A5 SP:FB
D783  8D 78 06  STA  A:80 X:80 Y:D3 P:A5 SP:FB
D786  EC 78 06  CPX  A:80 X:80 Y:D3 P:A5 SP:FB
D789  20 BF F8  JSR  A:80 X:80 Y:D3 P:27 SP:FB
F8BF  D0 05     BNE  A:80 X:80 Y:D3 P:27 SP:F9
F8C1  30 03     BMI  A:80 X:80 Y:D3 P:27 SP:F9
F8C3  90 01     BCC  A:80 X:80 Y:D3 P:27 SP:F9
F8C5  60        RTS  A:80 X:80 Y:D3 P:27 SP:F9
D78C  C8        INY  A:80 X:80 Y:D3 P:27 SP:FB
D78D  A9 81     LDA  A:80 X:80 Y:D4 P:A5 SP:FB
D78F  8D 78 06  STA  A:81 X:80 Y:D4 P:A5 SP:FB
D792  EC 78 06  CPX  A:81 X:80 Y:D4 P:A5 SP:FB
D795  20 C9 F8  JSR  A:81 X:80 Y:D4 P:A4 SP:FB
F8C9  B0 05     BCS  A:81 X:80 Y:D4 P:A4 SP:F9
F8CB  F0 03     BEQ  A:81 X:80 Y:D4 P:A4 SP:F9
F8CD  10 01     BPL  A:81 X:80 Y:D4 P:A4 SP:F9
F8CF  60        RTS  A:81 X:80 Y:D4 P:A4 SP:F9
D798  C8        INY  A:81 X:80 Y:D4 P:A4 SP:FB
D799  A9 7F     LDA  A:81 X:80 Y:D5 P:A4 SP:FB
D79B  8D 78 06  STA  A:7F X:80 Y:D5 P:24 SP:FB
D79E  EC 78 06  CPX  A:7F X:80 Y:D5 P:24 SP:FB
D7A1  20 D3 F8  JSR  A:7F X:80 Y:D5 P:25 SP:FB
F8D3  90 05     BCC  A:7F X:80 Y:D5 P:25 SP:F9
F8D5  F0 03     BEQ  A:7F X:80 Y:D5 P:25 SP:F9
F8D7  30 01     BMI  A:7F X:80 Y:D5 P:25 SP:F9
F8D9  60        RTS  A:7F X:80 Y:D5 P:25 SP:F9
D7A4  C8        INY  A:7F X:80 Y:D5 P:25 SP:FB
D7A5  98        TYA  A:7F X:80 Y:D6 P:A5 SP:FB
D7A6  AA        TAX  A:D6 X:80 Y:D6 P:A5 SP:FB
D7A7  A9 40     LDA  A:D6 X:D6 Y:D6 P:A5 SP:FB
D7A9  8D 78 06  STA  A:40 X:D6 Y:D6 P:25 SP:FB
D7AC  20 DD F8  JSR  A:40 X:D6 Y:D6 P:25 SP:FB
F8DD  24 01     BIT  A:40 X:D6 Y:D6 P:25 SP:F9
F8DF  A0 40     LDY  A:40 X:D6 Y:D6 P:E5 SP:F9
F8E1  60        RTS  A:40 X:D6 Y:40 P:65 SP:F9
D7AF  CC 78 06  CPY  A:40 X:D6 Y:40 P:65 SP:FB
D7B2  20 E2 F8  JSR  A:40 X:D6 Y:40 P:67 SP:FB
F8E2  30 07     BMI  A:40 X:D6 Y:40 P:67 SP:F9
F8E4  90 05     BCC  A:40 X:D6 Y:40 P:67 SP:F9
F8E6  D0 03     BNE  A:40 X:D6 Y:40 P:67 SP:F9
F8E8  50 01     BVC  A:40 X:D6 Y:40 P:67 SP:F9
F8EA  60        RTS  A:40 X:D6 Y:40 P:67 SP:F9
D7B5  E8        INX  A:40 X:D6 Y:40 P:67 SP:FB
D7B6  A9 3F     LDA  A:40 X:D7 Y:40 P:E5 SP:FB
D7B8  8D 78 06  STA  A:3F X:D7 Y:40 P:65 SP:FB
D7BB  20 EE F8  JSR  A:3F X:D7 Y:40 P:65 SP:FB
F8EE  B8        CLV  A:3F X:D7 Y:40 P:65 SP:F9
F8EF  60        RTS  A:3F X:D7 Y:40 P:25 SP:F9
D7BE  CC 78 06  CPY  A:3F X:D7 Y:40 P:25 SP:FB
D7C1  20 F0 F8  JSR  A:3F X:D7 Y:40 P:25 SP:FB
F8F0  F0 07     BEQ  A:3F X:D7 Y:40 P:25 SP:F9
F8F2  30 05     BMI  A:3F X:D7 Y:40 P:25 SP:F9
F8F4  90 03     BCC  A:3F X:D7 Y:40 P:25 SP:F9
F8F6  70 01     BVS  A:3F X:D7 Y:40 P:25 SP:F9
F8F8  60        RTS  A:3F X:D7 Y:40 P:25 SP:F9
D7C4  E8        INX  A:3F X:D7 Y:40 P:25 SP:FB
D7C5  A9 41     LDA  A:3F X:D8 Y:40 P:A5 SP:FB
D7C7  8D 78 06  STA  A:41 X:D8 Y:40 P:25 SP:FB
D7CA  CC 78 06  CPY  A:41 X:D8 Y:40 P:25 SP:FB
D7CD  20 FC F8  JSR  A:41 X:D8 Y:40 P:A4 SP:FB
F8FC  F0 05     BEQ  A:41 X:D8 Y:40 P:A4 SP:F9
F8FE  10 03     BPL  A:41 X:D8 Y:40 P:A4 SP:F9
F900  10 01     BPL  A:41 X:D8 Y:40 P:A4 SP:F9
F902  60        RTS  A:41 X:D8 Y:40 P:A4 SP:F9
D7D0  E8        INX  A:41 X:D8 Y:40 P:A4 SP:FB
D7D1  A9 00     LDA  A:41 X:D9 Y:40 P:A4 SP:FB
D7D3  8D 78 06  STA  A:00 X:D9 Y:40 P:26 SP:FB
D7D6  20 06 F9  JSR  A:00 X:D9 Y:40 P:26 SP:FB
F906  A0 80     LDY  A:00 X:D9 Y:40 P:26 SP:F9
F908  60        RTS  A:00 X:D9 Y:80 P:A4 SP:F9
D7D9  CC 78 06  CPY  A:00 X:D9 Y:80 P:A4 SP:FB
D7DC  20 09 F9  JSR  A:00 X:D9 Y:80 P:A5 SP:FB
F909  F0 05     BEQ  A:00 X:D9 Y:80 P:A5 SP:F9
F90B  10 03     BPL  A:00 X:D9 Y:80 P:A5 SP:F9
F90D  90 01     BCC  A:00 X:D9 Y:80 P:A5 SP:F9
F90F  60        RTS  A:00 X:D9 Y:80 P:A5 SP:F9
D7DF  E8        INX  A:00 X:D9 Y:80 P:A5 SP:FB
D7E0  A9 80     LDA  A:00 X:DA Y:80 P:A5 SP:FB
D7E2  8D 78 06  STA  A:80 X:DA Y:80 P:A5 SP:FB
D7E5  CC 78 06  CPY  A:80 X:DA Y:80 P:A5 SP:FB
D7E8  20 13 F9  JSR  A:80 X:DA Y:80 P:27 SP:FB
F913  D0 05     BNE  A:80 X:DA Y:80 P:27 SP:F9
F915  30 03     BMI  A:80 X:DA Y:80 P:27 SP:F9
F917  90 01     BCC  A:80 X:DA Y:80 P:27 SP:F9
F919  60        RTS  A:80 X:DA Y:80 P:27 SP:F9
D7EB  E8        INX  A:80 X:DA Y:80 P:27 SP:FB
D7EC  A9 81     LDA  A:80 X:DB Y:80 P:A5 SP:FB
D7EE  8D 78 06  STA  A:81 X:DB Y:80 P:A5 SP:FB
D7F1  CC 78 06  CPY  A:81 X:DB Y:80 P:A5 SP:FB
D7F4  20 1D F9  JSR  A:81 X:DB Y:80 P:A4 SP:FB
F91D  B0 05     BCS  A:81 X:DB Y:80 P:A4 SP:F9
F91F  F0 03     BEQ  A:81 X:DB Y:80 P:A4 SP:F9
F921  10 01     BPL  A:81 X:DB Y:80 P:A4 SP:F9
F923  60        RTS  A:81 X:DB Y:80 P:A4 SP:F9
D7F7  E8        INX  A:81 X:DB Y:80 P:A4 SP:FB
D7F8  A9 7F     LDA  A:81 X:DC Y:80 P:A4 SP:FB
D7FA  8D 78 06  STA  A:7F X:DC Y:80 P:24 SP:FB
D7FD  CC 78 06  CPY  A:7F X:DC Y:80 P:24 SP:FB
D800  20 27 F9  JSR  A:7F X:DC Y:80 P:25 SP:FB
F927  90 05     BCC  A:7F X:DC Y:80 P:25 SP:F9
F929  F0 03     BEQ  A:7F X:DC Y:80 P:25 SP:F9
F92B  30 01     BMI  A:7F X:DC Y:80 P:25 SP:F9
F92D  60        RTS  A:7F X:DC Y:80 P:25 SP:F9
D803  E8        INX  A:7F X:DC Y:80 P:25 SP:FB
D804  8A        TXA  A:7F X:DD Y:80 P:A5 SP:FB
D805  A8        TAY  A:DD X:DD Y:80 P:A5 SP:FB
D806  20 90 F9  JSR  A:DD X:DD Y:DD P:A5 SP:FB
F990  A2 55     LDX  A:DD X:DD Y:DD P:A5 SP:F9
F992  A9 FF     LDA  A:DD X:55 Y:DD P:25 SP:F9
F994  85 01     STA  A:FF X:55 Y:DD P:A5 SP:F9
F996  EA        NOP  A:FF X:55 Y:DD P:A5 SP:F9
F997  24 01     BIT  A:FF X:55 Y:DD P:A5 SP:F9
F999  38        SEC  A:FF X:55 Y:DD P:E5 SP:F9
F99A  A9 01     LDA  A:FF X:55 Y:DD P:E5 SP:F9
F99C  60        RTS  A:01 X:55 Y:DD P:65 SP:F9
D809  8D 78 06  STA  A:01 X:55 Y:DD P:65 SP:FB
D80C  4E 78 06  LSR  A:01 X:55 Y:DD P:65 SP:FB
D80F  AD 78 06  LDA  A:01 X:55 Y:DD P:67 SP:FB
D812  20 9D F9  JSR  A:00 X:55 Y:DD P:67 SP:FB
F99D  90 1B     BCC  A:00 X:55 Y:DD P:67 SP:F9
F99F  D0 19     BNE  A:00 X:55 Y:DD P:67 SP:F9
F9A1  30 17     BMI  A:00 X:55 Y:DD P:67 SP:F9
F9A3  50 15     BVC  A:00 X:55 Y:DD P:67 SP:F9
F9A5  C9 00     CMP  A:00 X:55 Y:DD P:67 SP:F9
F9A7  D0 11     BNE  A:00 X:55 Y:DD P:67 SP:F9
F9A9  B8        CLV  A:00 X:55 Y:DD P:67 SP:F9
F9AA  A9 AA     LDA  A:00 X:55 Y:DD P:27 SP:F9
F9AC  60        RTS  A:AA X:55 Y:DD P:A5 SP:F9
D815  C8        INY  A:AA X:55 Y:DD P:A5 SP:FB
D816  8D 78 06  STA  A:AA X:55 Y:DE P:A5 SP:FB
D819  4E 78 06  LSR  A:AA X:55 Y:DE P:A5 SP:FB
D81C  AD 78 06  LDA  A:AA X:55 Y:DE P:24 SP:FB
D81F  20 AD F9  JSR  A:55 X:55 Y:DE P:24 SP:FB
F9AD  B0 0B     BCS  A:55 X:55 Y:DE P:24 SP:F9
F9AF  F0 09     BEQ  A:55 X:55 Y:DE P:24 SP:F9
F9B1  30 07     BMI  A:55 X:55 Y:DE P:24 SP:F9
F9B3  70 05     BVS  A:55 X:55 Y:DE P:24 SP:F9
F9B5  C9 55     CMP  A:55 X:55 Y:DE P:24 SP:F9
F9B7  D0 01     BNE  A:55 X:55 Y:DE P:27 SP:F9
F9B9  60        RTS  A:55 X:55 Y:DE P:27 SP:F9
D822  C8        INY  A:55 X:55 Y:DE P:27 SP:FB
D823  20 BD F9  JSR  A:55 X:55 Y:DF P:A5 SP:FB
F9BD  24 01     BIT  A:55 X:55 Y:DF P:A5 SP:F9
F9BF  38        SEC  A:55 X:55 Y:DF P:E5 SP:F9
F9C0  A9 80     LDA  A:55 X:55 Y:DF P:E5 SP:F9
F9C2  60        RTS  A:80 X:55 Y:DF P:E5 SP:F9
D826  8D 78 06  STA  A:80 X:55 Y:DF P:E5 SP:FB
D829  0E 78 06  ASL  A:80 X:55 Y:DF P:E5 SP:FB
D82C  AD 78 06  LDA  A:80 X:55 Y:DF P:67 SP:FB
D82F  20 C3 F9  JSR  A:00 X:55 Y:DF P:67 SP:FB
F9C3  90 1C     BCC  A:00 X:55 Y:DF P:67 SP:F9
F9C5  D0 1A     BNE  A:00 X:55 Y:DF P:67 SP:F9
F9C7  30 18     BMI  A:00 X:55 Y:DF P:67 SP:F9
F9C9  50 16     BVC  A:00 X:55 Y:DF P:67 SP:F9
F9CB  C9 00     CMP  A:00 X:55 Y:DF P:67 SP:F9
F9CD  D0 12     BNE  A:00 X:55 Y:DF P:67 SP:F9
F9CF  B8        CLV  A:00 X:55 Y:DF P:67 SP:F9
F9D0  A9 55     LDA  A:00 X:55 Y:DF P:27 SP:F9
F9D2  38        SEC  A:55 X:55 Y:DF P:25 SP:F9
F9D3  60        RTS  A:55 X:55 Y:DF P:25 SP:F9
D832  C8        INY  A:55 X:55 Y:DF P:25 SP:FB
D833  8D 78 06  STA  A:55 X:55 Y:E0 P:A5 SP:FB
D836  0E 78 06  ASL  A:55 X:55 Y:E0 P:A5 SP:FB
D839  AD 78 06  LDA  A:55 X:55 Y:E0 P:A4 SP:FB
D83C  20 D4 F9  JSR  A:AA X:55 Y:E0 P:A4 SP:FB
F9D4  B0 0B     BCS  A:AA X:55 Y:E0 P:A4 SP:F9
F9D6  F0 09     BEQ  A:AA X:55 Y:E0 P:A4 SP:F9
F9D8  10 07     BPL  A:AA X:55 Y:E0 P:A4 SP:F9
F9DA  70 05     BVS  A:AA X:55 Y:E0 P:A4 SP:F9
F9DC  C9 AA     CMP  A:AA X:55 Y:E0 P:A4 SP:F9
F9DE  D0 01     BNE  A:AA X:55 Y:E0 P:27 SP:F9
F9E0  60        RTS  A:AA X:55 Y:E0 P:27 SP:F9
D83F  C8        INY  A:AA X:55 Y:E0 P:27 SP:FB
D840  20 E4 F9  JSR  A:AA X:55 Y:E1 P:A5 SP:FB
F9E4  24 01     BIT  A:AA X:55 Y:E1 P:A5 SP:F9
F9E6  38        SEC  A:AA X:55 Y:E1 P:E5 SP:F9
F9E7  A9 01     LDA  A:AA X:55 Y:E1 P:E5 SP:F9
F9E9  60        RTS  A:01 X:55 Y:E1 P:65 SP:F9
D843  8D 78 06  STA  A:01 X:55 Y:E1 P:65 SP:FB
D846  6E 78 06  ROR  A:01 X:55 Y:E1 P:65 SP:FB
D849  AD 78 06  LDA  A:01 X:55 Y:E1 P:E5 SP:FB
D84C  20 EA F9  JSR  A:80 X:55 Y:E1 P:E5 SP:FB
F9EA  90 1C     BCC  A:80 X:55 Y:E1 P:E5 SP:F9
F9EC  F0 1A     BEQ  A:80 X:55 Y:E1 P:E5 SP:F9
F9EE  10 18     BPL  A:80 X:55 Y:E1 P:E5 SP:F9
F9F0  50 16     BVC  A:80 X:55 Y:E1 P:E5 SP:F9
F9F2  C9 80     CMP  A:80 X:55 Y:E1 P:E5 SP:F9
F9F4  D0 12     BNE  A:80 X:55 Y:E1 P:67 SP:F9
F9F6  B8        CLV  A:80 X:55 Y:E1 P:67 SP:F9
F9F7  18        CLC  A:80 X:55 Y:E1 P:27 SP:F9
F9F8  A9 55     LDA  A:80 X:55 Y:E1 P:26 SP:F9
F9FA  60        RTS  A:55 X:55 Y:E1 P:24 SP:F9
D84F  C8        INY  A:55 X:55 Y:E1 P:24 SP:FB
D850  8D 78 06  STA  A:55 X:55 Y:E2 P:A4 SP:FB
D853  6E 78 06  ROR  A:55 X:55 Y:E2 P:A4 SP:FB
D856  AD 78 06  LDA  A:55 X:55 Y:E2 P:25 SP:FB
D859  20 FB F9  JSR  A:2A X:55 Y:E2 P:25 SP:FB
F9FB  90 0B     BCC  A:2A X:55 Y:E2 P:25 SP:F9
F9FD  F0 09     BEQ  A:2A X:55 Y:E2 P:25 SP:F9
F9FF  30 07     BMI  A:2A X:55 Y:E2 P:25 SP:F9
FA01  70 05     BVS  A:2A X:55 Y:E2 P:25 SP:F9
FA03  C9 2A     CMP  A:2A X:55 Y:E2 P:25 SP:F9
FA05  D0 01     BNE  A:2A X:55 Y:E2 P:27 SP:F9
FA07  60        RTS  A:2A X:55 Y:E2 P:27 SP:F9
D85C  C8        INY  A:2A X:55 Y:E2 P:27 SP:FB
D85D  20 0A FA  JSR  A:2A X:55 Y:E3 P:A5 SP:FB
FA0A  24 01     BIT  A:2A X:55 Y:E3 P:A5 SP:F9
FA0C  38        SEC  A:2A X:55 Y:E3 P:E5 SP:F9
FA0D  A9 80     LDA  A:2A X:55 Y:E3 P:E5 SP:F9
FA0F  60        RTS  A:80 X:55 Y:E3 P:E5 SP:F9
D860  8D 78 06  STA  A:80 X:55 Y:E3 P:E5 SP:FB
D863  2E 78 06  ROL  A:80 X:55 Y:E3 P:E5 SP:FB
D866  AD 78 06  LDA  A:80 X:55 Y:E3 P:65 SP:FB
D869  20 10 FA  JSR  A:01 X:55 Y:E3 P:65 SP:FB
FA10  90 1C     BCC  A:01 X:55 Y:E3 P:65 SP:F9
FA12  F0 1A     BEQ  A:01 X:55 Y:E3 P:65 SP:F9
FA14  30 18     BMI  A:01 X:55 Y:E3 P:65 SP:F9
FA16  50 16     BVC  A:01 X:55 Y:E3 P:65 SP:F9
FA18  C9 01     CMP  A:01 X:55 Y:E3 P:65 SP:F9
FA1A  D0 12     BNE  A:01 X:55 Y:E3 P:67 SP:F9
FA1C  B8        CLV  A:01 X:55 Y:E3 P:67 SP:F9
FA1D  18        CLC  A:01 X:55 Y:E3 P:27 SP:F9
FA1E  A9 55     LDA  A:01 X:55 Y:E3 P:26 SP:F9
FA20  60        RTS  A:55 X:55 Y:E3 P:24 SP:F9
D86C  C8        INY  A:55 X:55 Y:E3 P:24 SP:FB
D86D  8D 78 06  STA  A:55 X:55 Y:E4 P:A4 SP:FB
D870  2E 78 06  ROL  A:55 X:55 Y:E4 P:A4 SP:FB
D873  AD 78 06  LDA  A:55 X:55 Y:E4 P:A4 SP:FB
D876  20 21 FA  JSR  A:AA X:55 Y:E4 P:A4 SP:FB
FA21  B0 0B     BCS  A:AA X:55 Y:E4 P:A4 SP:F9
FA23  F0 09     BEQ  A:AA X:55 Y:E4 P:A4 SP:F9
FA25  10 07     BPL  A:AA X:55 Y:E4 P:A4 SP:F9
FA27  70 05     BVS  A:AA X:55 Y:E4 P:A4 SP:F9
FA29  C9 AA     CMP  A:AA X:55 Y:E4 P:A4 SP:F9
FA2B  D0 01     BNE  A:AA X:55 Y:E4 P:27 SP:F9
FA2D  60        RTS  A:AA X:55 Y:E4 P:27 SP:F9
D879  A9 FF     LDA  A:AA X:55 Y:E4 P:27 SP:FB
D87B  8D 78 06  STA  A:FF X:55 Y:E4 P:A5 SP:FB
D87E  85 01     STA  A:FF X:55 Y:E4 P:A5 SP:FB
D880  24 01     BIT  A:FF X:55 Y:E4 P:A5 SP:FB
D882  38        SEC  A:FF X:55 Y:E4 P:E5 SP:FB
D883  EE 78 06  INC  A:FF X:55 Y:E4 P:E5 SP:FB
D886  D0 0D     BNE  A:FF X:55 Y:E4 P:67 SP:FB
D888  30 0B     BMI  A:FF X:55 Y:E4 P:67 SP:FB
D88A  50 09     BVC  A:FF X:55 Y:E4 P:67 SP:FB
D88C  90 07     BCC  A:FF X:55 Y:E4 P:67 SP:FB
D88E  AD 78 06  LDA  A:FF X:55 Y:E4 P:67 SP:FB
D891  C9 00     CMP  A:00 X:55 Y:E4 P:67 SP:FB
D893  F0 04     BEQ  A:00 X:55 Y:E4 P:67 SP:FB
D899  A9 7F     LDA  A:00 X:55 Y:E4 P:67 SP:FB
D89B  8D 78 06  STA  A:7F X:55 Y:E4 P:65 SP:FB
D89E  B8        CLV  A:7F X:55 Y:E4 P:65 SP:FB
D89F  18        CLC  A:7F X:55 Y:E4 P:25 SP:FB
D8A0  EE 78 06  INC  A:7F X:55 Y:E4 P:24 SP:FB
D8A3  F0 0D     BEQ  A:7F X:55 Y:E4 P:A4 SP:FB
D8A5  10 0B     BPL  A:7F X:55 Y:E4 P:A4 SP:FB
D8A7  70 09     BVS  A:7F X:55 Y:E4 P:A4 SP:FB
D8A9  B0 07     BCS  A:7F X:55 Y:E4 P:A4 SP:FB
D8AB  AD 78 06  LDA  A:7F X:55 Y:E4 P:A4 SP:FB
D8AE  C9 80     CMP  A:80 X:55 Y:E4 P:A4 SP:FB
D8B0  F0 04     BEQ  A:80 X:55 Y:E4 P:27 SP:FB
D8B6  A9 00     LDA  A:80 X:55 Y:E4 P:27 SP:FB
D8B8  8D 78 06  STA  A:00 X:55 Y:E4 P:27 SP:FB
D8BB  24 01     BIT  A:00 X:55 Y:E4 P:27 SP:FB
D8BD  38        SEC  A:00 X:55 Y:E4 P:E7 SP:FB
D8BE  CE 78 06  DEC  A:00 X:55 Y:E4 P:E7 SP:FB
D8C1  F0 0D     BEQ  A:00 X:55 Y:E4 P:E5 SP:FB
D8C3  10 0B     BPL  A:00 X:55 Y:E4 P:E5 SP:FB
